GAS LISTING /tmp/cceaV4lG.s 			page 1


   1              		.file	"lib_convert.cpp"
   2              		.text
   3              	.Ltext0:
   4              		.file 0 "/home/prodan/_work/linux/radar/radar_img_create" "lib_convert.cpp"
   5              		.type	_ZL10_uint32toaPcj, @function
   6              	_ZL10_uint32toaPcj:
   7              	.LVL0:
   8              	.LFB66:
   9              		.file 1 "lib_convert.cpp"
   1:lib_convert.cpp **** 
   2:lib_convert.cpp **** #include <inttypes.h>
   3:lib_convert.cpp **** #include <string.h>
   4:lib_convert.cpp **** #include <stdlib.h>
   5:lib_convert.cpp **** #include <time.h>
   6:lib_convert.cpp **** #include "lib_convert.h"
   7:lib_convert.cpp **** 
   8:lib_convert.cpp **** // ###############################################
   9:lib_convert.cpp **** // #
  10:lib_convert.cpp **** // #  string functions
  11:lib_convert.cpp **** // #
  12:lib_convert.cpp **** 
  13:lib_convert.cpp **** uint8_t str_to_uint8(char *str, uint8_t * out, const uint8_t seek,
  14:lib_convert.cpp ****                      const uint8_t len, const uint8_t min, const uint8_t max)
  15:lib_convert.cpp **** {
  16:lib_convert.cpp ****     uint32_t val = 0, pow = 1;
  17:lib_convert.cpp ****     uint8_t i;
  18:lib_convert.cpp **** 
  19:lib_convert.cpp ****     // pow() is missing in msp gcc, so we improvise
  20:lib_convert.cpp ****     for (i = 0; i < len - 1; i++) {
  21:lib_convert.cpp ****         pow *= 10;
  22:lib_convert.cpp ****     }
  23:lib_convert.cpp ****     for (i = 0; i < len; i++) {
  24:lib_convert.cpp ****         if ((str[seek + i] > 47) && (str[seek + i] < 58)) {
  25:lib_convert.cpp ****             val += (str[seek + i] - 48) * pow;
  26:lib_convert.cpp ****         }
  27:lib_convert.cpp ****         pow /= 10;
  28:lib_convert.cpp ****     }
  29:lib_convert.cpp ****     if ((val >= min) && (val <= max)) {
  30:lib_convert.cpp ****         *out = val;
  31:lib_convert.cpp ****         return EXIT_SUCCESS;
  32:lib_convert.cpp ****     } else {
  33:lib_convert.cpp ****         return EXIT_FAILURE;
  34:lib_convert.cpp ****     }
  35:lib_convert.cpp **** }
  36:lib_convert.cpp **** 
  37:lib_convert.cpp **** uint8_t str_to_uint16(char *str, uint16_t * out, const uint8_t seek,
  38:lib_convert.cpp ****                       const uint8_t len, const uint16_t min, const uint16_t max)
  39:lib_convert.cpp **** {
  40:lib_convert.cpp ****     uint16_t val = 0;
  41:lib_convert.cpp ****     uint32_t pow = 1;
  42:lib_convert.cpp ****     uint8_t i, c;
  43:lib_convert.cpp **** 
  44:lib_convert.cpp ****     for (i = len + 1; i > seek; i--) {
  45:lib_convert.cpp ****         c = str[i - 1] - 48;
  46:lib_convert.cpp ****         if (c < 10) {
  47:lib_convert.cpp ****             val += c * pow;
  48:lib_convert.cpp ****             pow *= 10;
GAS LISTING /tmp/cceaV4lG.s 			page 2


  49:lib_convert.cpp ****         } else {
  50:lib_convert.cpp ****             if (val) {
  51:lib_convert.cpp ****                 // if we already have a number and this char is unexpected
  52:lib_convert.cpp ****                 break;
  53:lib_convert.cpp ****             }
  54:lib_convert.cpp ****         }
  55:lib_convert.cpp ****     }
  56:lib_convert.cpp **** 
  57:lib_convert.cpp ****     if ((val >= min) && (val <= max)) {
  58:lib_convert.cpp ****         *out = val;
  59:lib_convert.cpp ****     } else {
  60:lib_convert.cpp ****         return EXIT_FAILURE;
  61:lib_convert.cpp ****     }
  62:lib_convert.cpp **** 
  63:lib_convert.cpp ****     return EXIT_SUCCESS;
  64:lib_convert.cpp **** }
  65:lib_convert.cpp **** 
  66:lib_convert.cpp **** uint8_t str_to_uint32(char *str, uint32_t * out, const uint8_t seek,
  67:lib_convert.cpp ****                       const uint8_t len, const uint32_t min, const uint32_t max)
  68:lib_convert.cpp **** {
  69:lib_convert.cpp ****     uint32_t val = 0, pow = 1;
  70:lib_convert.cpp ****     uint8_t i;
  71:lib_convert.cpp **** 
  72:lib_convert.cpp ****     // pow() is missing in msp gcc, so we improvise
  73:lib_convert.cpp ****     for (i = 0; i < len - 1; i++) {
  74:lib_convert.cpp ****         pow *= 10;
  75:lib_convert.cpp ****     }
  76:lib_convert.cpp ****     for (i = 0; i < len; i++) {
  77:lib_convert.cpp ****         if ((str[seek + i] > 47) && (str[seek + i] < 58)) {
  78:lib_convert.cpp ****             val += (str[seek + i] - 48) * pow;
  79:lib_convert.cpp ****         } else {
  80:lib_convert.cpp ****             val /= 10;
  81:lib_convert.cpp ****         }
  82:lib_convert.cpp ****         pow /= 10;
  83:lib_convert.cpp ****     }
  84:lib_convert.cpp ****     if ((val >= min) && (val <= max)) {
  85:lib_convert.cpp ****         *out = val;
  86:lib_convert.cpp ****         return EXIT_SUCCESS;
  87:lib_convert.cpp ****     } else {
  88:lib_convert.cpp ****         return EXIT_FAILURE;
  89:lib_convert.cpp ****     }
  90:lib_convert.cpp **** }
  91:lib_convert.cpp **** 
  92:lib_convert.cpp **** uint8_t str_to_int32(char *str, int32_t * out, const uint8_t seek,
  93:lib_convert.cpp ****                      const uint8_t len, const int32_t min, const int32_t max)
  94:lib_convert.cpp **** {
  95:lib_convert.cpp ****     int32_t val = 0;
  96:lib_convert.cpp ****     uint32_t pow = 1;
  97:lib_convert.cpp ****     uint8_t i;
  98:lib_convert.cpp ****     int8_t sign = 1;
  99:lib_convert.cpp **** 
 100:lib_convert.cpp ****     // pow() is missing in msp gcc, so we improvise
 101:lib_convert.cpp ****     for (i = 0; i < len - 1; i++) {
 102:lib_convert.cpp ****         pow *= 10;
 103:lib_convert.cpp ****     }
 104:lib_convert.cpp ****     for (i = 0; i < len; i++) {
 105:lib_convert.cpp ****         if ((str[seek + i] > 47) && (str[seek + i] < 58)) {
GAS LISTING /tmp/cceaV4lG.s 			page 3


 106:lib_convert.cpp ****             val += (str[seek + i] - 48) * pow;
 107:lib_convert.cpp ****         } else if (str[seek + i] == 45) {
 108:lib_convert.cpp ****             sign = -1;
 109:lib_convert.cpp ****         } else {
 110:lib_convert.cpp ****             val /= 10;
 111:lib_convert.cpp ****         }
 112:lib_convert.cpp ****         pow /= 10;
 113:lib_convert.cpp ****     }
 114:lib_convert.cpp ****     if ((val >= min) && (val <= max)) {
 115:lib_convert.cpp ****         *out = val * sign;
 116:lib_convert.cpp ****         return EXIT_SUCCESS;
 117:lib_convert.cpp ****     } else {
 118:lib_convert.cpp ****         return EXIT_FAILURE;
 119:lib_convert.cpp ****     }
 120:lib_convert.cpp **** }
 121:lib_convert.cpp **** 
 122:lib_convert.cpp **** uint8_t hstr_to_uint8(char *str, uint8_t * out, const uint8_t seek,
 123:lib_convert.cpp ****                       const uint8_t len, const uint8_t min, const uint16_t max)
 124:lib_convert.cpp **** {
 125:lib_convert.cpp ****     uint8_t val = 0;
 126:lib_convert.cpp ****     uint32_t pow = 1;
 127:lib_convert.cpp ****     uint8_t i;
 128:lib_convert.cpp **** 
 129:lib_convert.cpp ****     // pow() is missing in msp gcc, so we improvise
 130:lib_convert.cpp ****     for (i = seek; i < len; i++) {
 131:lib_convert.cpp ****         pow *= 16;
 132:lib_convert.cpp ****     }
 133:lib_convert.cpp **** 
 134:lib_convert.cpp ****     for (i = seek; i < len + 1; i++) {
 135:lib_convert.cpp ****         if ((str[i] > 47) && (str[i] < 58)) {
 136:lib_convert.cpp ****             // 0 - 9
 137:lib_convert.cpp ****             val += (str[i] - 48) * pow;
 138:lib_convert.cpp ****         } else if ((str[i] > 96) && (str[i] < 103)) {
 139:lib_convert.cpp ****             // a - f
 140:lib_convert.cpp ****             val += (str[i] - 87) * pow;
 141:lib_convert.cpp ****         } else if ((str[i] > 64) && (str[i] < 71)) {
 142:lib_convert.cpp ****             // A - F
 143:lib_convert.cpp ****             val += (str[i] - 55) * pow;
 144:lib_convert.cpp ****         }
 145:lib_convert.cpp ****         pow /= 16;
 146:lib_convert.cpp ****     }
 147:lib_convert.cpp **** 
 148:lib_convert.cpp ****     if ((val >= min) && (val <= max)) {
 149:lib_convert.cpp ****         *out = val;
 150:lib_convert.cpp ****         return EXIT_SUCCESS;
 151:lib_convert.cpp ****     } else {
 152:lib_convert.cpp ****         return EXIT_FAILURE;
 153:lib_convert.cpp ****     }
 154:lib_convert.cpp **** }
 155:lib_convert.cpp **** 
 156:lib_convert.cpp **** uint8_t hstr_to_uint16(char *str, uint16_t * out, const uint8_t seek,
 157:lib_convert.cpp ****                        const uint8_t len, const uint16_t min, const uint16_t max)
 158:lib_convert.cpp **** {
 159:lib_convert.cpp ****     uint16_t val = 0;
 160:lib_convert.cpp ****     uint32_t pow = 1;
 161:lib_convert.cpp ****     uint8_t i;
 162:lib_convert.cpp **** 
GAS LISTING /tmp/cceaV4lG.s 			page 4


 163:lib_convert.cpp ****     // pow() is missing in msp gcc, so we improvise
 164:lib_convert.cpp ****     for (i = seek; i < len; i++) {
 165:lib_convert.cpp ****         pow *= 16;
 166:lib_convert.cpp ****     }
 167:lib_convert.cpp **** 
 168:lib_convert.cpp ****     for (i = seek; i < len + 1; i++) {
 169:lib_convert.cpp ****         if ((str[i] > 47) && (str[i] < 58)) {
 170:lib_convert.cpp ****             // 0 - 9
 171:lib_convert.cpp ****             val += (str[i] - 48) * pow;
 172:lib_convert.cpp ****         } else if ((str[i] > 96) && (str[i] < 103)) {
 173:lib_convert.cpp ****             // a - f
 174:lib_convert.cpp ****             val += (str[i] - 87) * pow;
 175:lib_convert.cpp ****         } else if ((str[i] > 64) && (str[i] < 71)) {
 176:lib_convert.cpp ****             // A - F
 177:lib_convert.cpp ****             val += (str[i] - 55) * pow;
 178:lib_convert.cpp ****         }
 179:lib_convert.cpp ****         pow /= 16;
 180:lib_convert.cpp ****     }
 181:lib_convert.cpp **** 
 182:lib_convert.cpp ****     if ((val >= min) && (val <= max)) {
 183:lib_convert.cpp ****         *out = val;
 184:lib_convert.cpp ****         return EXIT_SUCCESS;
 185:lib_convert.cpp ****     } else {
 186:lib_convert.cpp ****         return EXIT_FAILURE;
 187:lib_convert.cpp ****     }
 188:lib_convert.cpp **** }
 189:lib_convert.cpp **** 
 190:lib_convert.cpp **** uint8_t hstr_to_uint32(char *str, uint32_t * out, const uint8_t seek,
 191:lib_convert.cpp ****                        const uint8_t len, const uint32_t min, const uint32_t max)
 192:lib_convert.cpp **** {
 193:lib_convert.cpp ****     uint32_t val = 0;
 194:lib_convert.cpp ****     uint32_t pow = 1;
 195:lib_convert.cpp ****     uint8_t i;
 196:lib_convert.cpp **** 
 197:lib_convert.cpp ****     // pow() is missing in msp gcc, so we improvise
 198:lib_convert.cpp ****     for (i = seek; i < len; i++) {
 199:lib_convert.cpp ****         pow *= 16;
 200:lib_convert.cpp ****     }
 201:lib_convert.cpp **** 
 202:lib_convert.cpp ****     for (i = seek; i < len + 1; i++) {
 203:lib_convert.cpp ****         if ((str[i] > 47) && (str[i] < 58)) {
 204:lib_convert.cpp ****             // 0 - 9
 205:lib_convert.cpp ****             val += (str[i] - 48) * pow;
 206:lib_convert.cpp ****         } else if ((str[i] > 96) && (str[i] < 103)) {
 207:lib_convert.cpp ****             // a - f
 208:lib_convert.cpp ****             val += (str[i] - 87) * pow;
 209:lib_convert.cpp ****         } else if ((str[i] > 64) && (str[i] < 71)) {
 210:lib_convert.cpp ****             // A - F
 211:lib_convert.cpp ****             val += (str[i] - 55) * pow;
 212:lib_convert.cpp ****         }
 213:lib_convert.cpp ****         pow /= 16;
 214:lib_convert.cpp ****     }
 215:lib_convert.cpp **** 
 216:lib_convert.cpp ****     if ((val >= min) && (val <= max)) {
 217:lib_convert.cpp ****         *out = val;
 218:lib_convert.cpp ****         return EXIT_SUCCESS;
 219:lib_convert.cpp ****     } else {
GAS LISTING /tmp/cceaV4lG.s 			page 5


 220:lib_convert.cpp ****         return EXIT_FAILURE;
 221:lib_convert.cpp ****     }
 222:lib_convert.cpp **** }
 223:lib_convert.cpp **** 
 224:lib_convert.cpp **** static uint16_t const hex_ascii[16] =
 225:lib_convert.cpp ****     { 0x30, 0x31, 0x32, 0x33, 0x34, 0x35, 0x36, 0x37, 0x38, 0x39, 0x61, 0x62, 0x63, 0x64, 0x65,
 226:lib_convert.cpp ****     0x66
 227:lib_convert.cpp **** };
 228:lib_convert.cpp **** 
 229:lib_convert.cpp **** char *_utoh(char *buf, const uint32_t val)
 230:lib_convert.cpp **** {
 231:lib_convert.cpp ****     char *p = buf + (CONV_BASE_16_BUF_SZ - 1);   // the very end of the buffer
 232:lib_convert.cpp ****     uint32_t m = val;
 233:lib_convert.cpp ****     uint8_t i = 0;
 234:lib_convert.cpp **** 
 235:lib_convert.cpp ****     *p = '\0';
 236:lib_convert.cpp **** 
 237:lib_convert.cpp ****     if (val == 0) {
 238:lib_convert.cpp ****         p -= 1;
 239:lib_convert.cpp ****         memcpy(p, &hex_ascii[0], sizeof(uint8_t));
 240:lib_convert.cpp ****     }
 241:lib_convert.cpp ****     // groups of 8 bits
 242:lib_convert.cpp ****     while (m > 0 || (i & 1)) {
 243:lib_convert.cpp ****         p -= 1;
 244:lib_convert.cpp ****         memcpy(p, &hex_ascii[m & 0xf], sizeof(uint8_t));
 245:lib_convert.cpp ****         m >>= 4;
 246:lib_convert.cpp ****         i++;
 247:lib_convert.cpp ****     }
 248:lib_convert.cpp **** 
 249:lib_convert.cpp ****     p -= 2;
 250:lib_convert.cpp ****     memcpy(p, "0x", sizeof(uint16_t));
 251:lib_convert.cpp **** 
 252:lib_convert.cpp ****     return p;
 253:lib_convert.cpp **** }
 254:lib_convert.cpp **** 
 255:lib_convert.cpp **** char *_utoh8(char *buf, const uint32_t val)
 256:lib_convert.cpp **** {
 257:lib_convert.cpp ****     char *p = buf + (CONV_BASE_16_BUF_SZ - 1);   // the very end of the buffer
 258:lib_convert.cpp ****     uint32_t m = val;
 259:lib_convert.cpp ****     uint8_t i = 0;
 260:lib_convert.cpp **** 
 261:lib_convert.cpp ****     *p = '\0';
 262:lib_convert.cpp **** 
 263:lib_convert.cpp ****     if (val == 0) {
 264:lib_convert.cpp ****         p -= 2;
 265:lib_convert.cpp ****         memcpy(p, &hex_ascii[0], sizeof(uint8_t));
 266:lib_convert.cpp ****         memcpy(p + 1, &hex_ascii[0], sizeof(uint8_t));
 267:lib_convert.cpp ****     }
 268:lib_convert.cpp ****     // groups of 8 bits
 269:lib_convert.cpp ****     while (m > 0 || (i & 1)) {
 270:lib_convert.cpp ****         p -= 1;
 271:lib_convert.cpp ****         memcpy(p, &hex_ascii[m & 0xf], sizeof(uint8_t));
 272:lib_convert.cpp ****         m >>= 4;
 273:lib_convert.cpp ****         i++;
 274:lib_convert.cpp ****     }
 275:lib_convert.cpp **** 
 276:lib_convert.cpp ****     return p;
GAS LISTING /tmp/cceaV4lG.s 			page 6


 277:lib_convert.cpp **** }
 278:lib_convert.cpp **** 
 279:lib_convert.cpp **** char *_utoh16(char *buf, const uint32_t val)
 280:lib_convert.cpp **** {
 281:lib_convert.cpp ****     char *p = buf + (CONV_BASE_16_BUF_SZ - 1);   // the very end of the buffer
 282:lib_convert.cpp ****     uint32_t m = val;
 283:lib_convert.cpp ****     uint8_t i = 0;
 284:lib_convert.cpp **** 
 285:lib_convert.cpp ****     *p = '\0';
 286:lib_convert.cpp **** 
 287:lib_convert.cpp ****     if (val == 0) {
 288:lib_convert.cpp ****         p -= 4;
 289:lib_convert.cpp ****         memcpy(p, &hex_ascii[0], sizeof(uint8_t));
 290:lib_convert.cpp ****         memcpy(p + 1, &hex_ascii[0], sizeof(uint8_t));
 291:lib_convert.cpp ****         memcpy(p + 2, &hex_ascii[0], sizeof(uint8_t));
 292:lib_convert.cpp ****         memcpy(p + 3, &hex_ascii[0], sizeof(uint8_t));
 293:lib_convert.cpp ****         return p;
 294:lib_convert.cpp ****     }
 295:lib_convert.cpp ****     // groups of 8 bits
 296:lib_convert.cpp ****     while (m > 0 || (i & 1)) {
 297:lib_convert.cpp ****         p -= 1;
 298:lib_convert.cpp ****         memcpy(p, &hex_ascii[m & 0xf], sizeof(uint8_t));
 299:lib_convert.cpp ****         m >>= 4;
 300:lib_convert.cpp ****         i++;
 301:lib_convert.cpp ****     }
 302:lib_convert.cpp **** 
 303:lib_convert.cpp ****     if (val < 0x100) {
 304:lib_convert.cpp ****         p -= 2;
 305:lib_convert.cpp ****         memcpy(p, &hex_ascii[0], sizeof(uint8_t));
 306:lib_convert.cpp ****         memcpy(p + 1, &hex_ascii[0], sizeof(uint8_t));
 307:lib_convert.cpp ****     }
 308:lib_convert.cpp **** 
 309:lib_convert.cpp ****     return p;
 310:lib_convert.cpp **** }
 311:lib_convert.cpp **** 
 312:lib_convert.cpp **** char *_utoh32(char *buf, const uint32_t val)
 313:lib_convert.cpp **** {
 314:lib_convert.cpp ****     char *p = buf + (CONV_BASE_16_BUF_SZ - 1);     // the very end of the buffer
 315:lib_convert.cpp ****     uint32_t m = val;
 316:lib_convert.cpp ****     uint8_t i = 0;
 317:lib_convert.cpp **** 
 318:lib_convert.cpp ****     *p = '\0';
 319:lib_convert.cpp **** 
 320:lib_convert.cpp ****     p -= 8;
 321:lib_convert.cpp ****     for (i=0;i<8;i++) {
 322:lib_convert.cpp ****         *(p + i) = 0x30;
 323:lib_convert.cpp ****     }
 324:lib_convert.cpp **** 
 325:lib_convert.cpp ****     p += 8;
 326:lib_convert.cpp ****     // groups of 8 bits
 327:lib_convert.cpp ****     while (m > 0 || (i & 1)) {
 328:lib_convert.cpp ****         p -= 1;
 329:lib_convert.cpp ****         memcpy(p, &hex_ascii[m & 0xf], sizeof(uint8_t));
 330:lib_convert.cpp ****         m >>= 4;
 331:lib_convert.cpp ****         i++;
 332:lib_convert.cpp ****     }
 333:lib_convert.cpp **** 
GAS LISTING /tmp/cceaV4lG.s 			page 7


 334:lib_convert.cpp ****     return buf + 3;
 335:lib_convert.cpp **** }
 336:lib_convert.cpp **** 
 337:lib_convert.cpp **** static uint16_t const caps_hex_ascii[16] =
 338:lib_convert.cpp ****     { 0x30, 0x31, 0x32, 0x33, 0x34, 0x35, 0x36, 0x37, 0x38, 0x39, 0x41, 0x42, 0x43, 0x44, 0x45,
 339:lib_convert.cpp ****     0x46
 340:lib_convert.cpp **** };
 341:lib_convert.cpp **** 
 342:lib_convert.cpp **** char *_utorh(char *buf, const uint32_t val, const uint8_t pad_size)
 343:lib_convert.cpp **** {
 344:lib_convert.cpp ****     char *p = &buf[11];
 345:lib_convert.cpp ****     uint32_t m = val;
 346:lib_convert.cpp ****     uint8_t i = 0;
 347:lib_convert.cpp ****     uint8_t pc = 0;
 348:lib_convert.cpp **** 
 349:lib_convert.cpp ****     *p = '\0';
 350:lib_convert.cpp **** 
 351:lib_convert.cpp ****     if (val == 0) {
 352:lib_convert.cpp ****         for (pc = 0; pc < pad_size; pc++) {
 353:lib_convert.cpp ****             memcpy(p - (pc + 1), &caps_hex_ascii[0], sizeof(uint8_t));
 354:lib_convert.cpp ****         }
 355:lib_convert.cpp ****         p -= pad_size;
 356:lib_convert.cpp ****         return p;
 357:lib_convert.cpp ****     }
 358:lib_convert.cpp ****     // groups of 8 bits
 359:lib_convert.cpp ****     //while (m > 0 || (i & 1))
 360:lib_convert.cpp ****     while (m > 0 || (i < pad_size)) {
 361:lib_convert.cpp ****         p -= 1;
 362:lib_convert.cpp ****         memcpy(p, &caps_hex_ascii[m & 0xf], sizeof(uint8_t));
 363:lib_convert.cpp ****         m >>= 4;
 364:lib_convert.cpp ****         i++;
 365:lib_convert.cpp ****     }
 366:lib_convert.cpp **** 
 367:lib_convert.cpp ****     return p;
 368:lib_convert.cpp **** }
 369:lib_convert.cpp **** 
 370:lib_convert.cpp **** #ifdef USE_ITOA_LUT
 371:lib_convert.cpp **** 
 372:lib_convert.cpp **** static uint16_t const dec_ascii[10] =
 373:lib_convert.cpp ****     { 0x30, 0x31, 0x32, 0x33, 0x34, 0x35, 0x36, 0x37, 0x38, 0x39 };
 374:lib_convert.cpp **** static uint16_t const bin_ascii[2] = { 0x30, 0x31 };
 375:lib_convert.cpp **** 
 376:lib_convert.cpp **** char *_uint32toa(char *buf, const uint32_t val)
 377:lib_convert.cpp **** {
 378:lib_convert.cpp ****     char *p = buf + (CONV_BASE_10_BUF_SZ - 1);  // the very end of the buffer
 379:lib_convert.cpp ****     uint32_t m = val;
 380:lib_convert.cpp **** 
 381:lib_convert.cpp ****     *p = '\0';
 382:lib_convert.cpp **** 
 383:lib_convert.cpp ****     while (m >= 10) {
 384:lib_convert.cpp ****         uint32_t const old = m;
 385:lib_convert.cpp **** 
 386:lib_convert.cpp ****         p -= 1;
 387:lib_convert.cpp ****         m /= 10;
 388:lib_convert.cpp ****         memcpy(p, &dec_ascii[old - (m * 10)], sizeof(uint8_t));
 389:lib_convert.cpp ****     }
 390:lib_convert.cpp **** 
GAS LISTING /tmp/cceaV4lG.s 			page 8


 391:lib_convert.cpp ****     p -= 1;
 392:lib_convert.cpp ****     memcpy(p, &dec_ascii[m], sizeof(uint8_t));
 393:lib_convert.cpp **** 
 394:lib_convert.cpp ****     return p;
 395:lib_convert.cpp **** }
 396:lib_convert.cpp **** 
 397:lib_convert.cpp **** char *_uint16toa(char *buf, const uint16_t val)
 398:lib_convert.cpp **** {
 399:lib_convert.cpp ****     char *p = buf + (CONV_BASE_10_BUF_SZ - 1);  // the very end of the buffer
 400:lib_convert.cpp ****     uint16_t m = val;
 401:lib_convert.cpp **** 
 402:lib_convert.cpp ****     *p = '\0';
 403:lib_convert.cpp **** 
 404:lib_convert.cpp ****     while (m >= 10) {
 405:lib_convert.cpp ****         uint32_t const old = m;
 406:lib_convert.cpp **** 
 407:lib_convert.cpp ****         p -= 1;
 408:lib_convert.cpp ****         m /= 10;
 409:lib_convert.cpp ****         memcpy(p, &dec_ascii[old - (m * 10)], sizeof(uint8_t));
 410:lib_convert.cpp ****     }
 411:lib_convert.cpp **** 
 412:lib_convert.cpp ****     p -= 1;
 413:lib_convert.cpp ****     memcpy(p, &dec_ascii[m], sizeof(uint8_t));
 414:lib_convert.cpp **** 
 415:lib_convert.cpp ****     return p;
 416:lib_convert.cpp **** }
 417:lib_convert.cpp **** 
 418:lib_convert.cpp **** char *_utob(char *buf, const uint16_t val)
 419:lib_convert.cpp **** {
 420:lib_convert.cpp ****     char *p = buf + (CONV_BASE_2_BUF_SZ - 1);   // the very end of the buffer
 421:lib_convert.cpp ****     uint16_t m = val;
 422:lib_convert.cpp ****     uint8_t i = 0;
 423:lib_convert.cpp **** 
 424:lib_convert.cpp ****     *p = '\0';
 425:lib_convert.cpp **** 
 426:lib_convert.cpp ****     if (val == 0) {
 427:lib_convert.cpp ****         p -= 1;
 428:lib_convert.cpp ****         memcpy(p, &bin_ascii[0], sizeof(uint8_t));
 429:lib_convert.cpp ****     }
 430:lib_convert.cpp ****     // groups of 8bits
 431:lib_convert.cpp ****     while (m > 0 || (i & 7)) {
 432:lib_convert.cpp ****         if (m > 0 && !(i & 7)) {
 433:lib_convert.cpp ****             p -= 1;
 434:lib_convert.cpp ****             *p = ' ';
 435:lib_convert.cpp ****         }
 436:lib_convert.cpp ****         p -= 1;
 437:lib_convert.cpp ****         memcpy(p, &bin_ascii[m & 0x1], sizeof(uint8_t));
 438:lib_convert.cpp ****         m >>= 1;
 439:lib_convert.cpp ****         i++;
 440:lib_convert.cpp ****     }
 441:lib_convert.cpp **** 
 442:lib_convert.cpp ****     return p;
 443:lib_convert.cpp **** }
 444:lib_convert.cpp **** #else
 445:lib_convert.cpp **** 
 446:lib_convert.cpp **** static char *_uint32toa(char *buf, const uint32_t val)
 447:lib_convert.cpp **** {
GAS LISTING /tmp/cceaV4lG.s 			page 9


  10              		.loc 1 447 1 view -0
  11              		.cfi_startproc
 448:lib_convert.cpp ****     char *p = buf + (CONV_BASE_10_BUF_SZ - 1);  // the very end of the buffer
  12              		.loc 1 448 5 view .LVU1
 449:lib_convert.cpp ****     uint32_t m = val;
  13              		.loc 1 449 5 view .LVU2
 450:lib_convert.cpp **** 
 451:lib_convert.cpp ****     *p = '\0';
  14              		.loc 1 451 5 view .LVU3
  15              		.loc 1 451 8 is_stmt 0 view .LVU4
  16 0000 C6470B00 		movb	$0, 11(%rdi)
 452:lib_convert.cpp **** 
 453:lib_convert.cpp ****     if (val == 0) {
  17              		.loc 1 453 5 is_stmt 1 view .LVU5
  18 0004 85F6     		testl	%esi, %esi
  19 0006 750A     		jne	.L2
 454:lib_convert.cpp ****         p -= 1;
  20              		.loc 1 454 9 view .LVU6
  21              		.loc 1 454 11 is_stmt 0 view .LVU7
  22 0008 4C8D470A 		leaq	10(%rdi), %r8
  23              	.LVL1:
 455:lib_convert.cpp ****         *p = '0';
  24              		.loc 1 455 9 is_stmt 1 view .LVU8
  25              		.loc 1 455 12 is_stmt 0 view .LVU9
  26 000c C6470A30 		movb	$48, 10(%rdi)
  27              	.LVL2:
 456:lib_convert.cpp ****     }
 457:lib_convert.cpp **** 
 458:lib_convert.cpp ****     while (m > 0) {
  28              		.loc 1 458 14 is_stmt 1 view .LVU10
  29 0010 EB2F     		jmp	.L1
  30              	.LVL3:
  31              	.L2:
 448:lib_convert.cpp ****     uint32_t m = val;
  32              		.loc 1 448 11 is_stmt 0 view .LVU11
  33 0012 4C8D470B 		leaq	11(%rdi), %r8
 459:lib_convert.cpp ****         p -= 1;
 460:lib_convert.cpp ****         *p = (m % 10) + '0';
  34              		.loc 1 460 17 view .LVU12
  35 0016 BFCDCCCC 		movl	$3435973837, %edi
  35      CC
  36              	.LVL4:
  37              	.L4:
 459:lib_convert.cpp ****         p -= 1;
  38              		.loc 1 459 9 is_stmt 1 view .LVU13
 459:lib_convert.cpp ****         p -= 1;
  39              		.loc 1 459 11 is_stmt 0 view .LVU14
  40 001b 4983E801 		subq	$1, %r8
  41              	.LVL5:
  42              		.loc 1 460 9 is_stmt 1 view .LVU15
  43              		.loc 1 460 17 is_stmt 0 view .LVU16
  44 001f 89F0     		movl	%esi, %eax
  45 0021 480FAFC7 		imulq	%rdi, %rax
  46 0025 48C1E823 		shrq	$35, %rax
  47 0029 8D0C80   		leal	(%rax,%rax,4), %ecx
  48 002c 01C9     		addl	%ecx, %ecx
  49 002e 89F2     		movl	%esi, %edx
GAS LISTING /tmp/cceaV4lG.s 			page 10


  50 0030 29CA     		subl	%ecx, %edx
  51              		.loc 1 460 23 view .LVU17
  52 0032 83C230   		addl	$48, %edx
  53 0035 418810   		movb	%dl, (%r8)
 461:lib_convert.cpp ****         m /= 10;
  54              		.loc 1 461 9 is_stmt 1 view .LVU18
  55 0038 89F2     		movl	%esi, %edx
  56              		.loc 1 461 11 is_stmt 0 view .LVU19
  57 003a 89C6     		movl	%eax, %esi
  58              	.LVL6:
 458:lib_convert.cpp ****         p -= 1;
  59              		.loc 1 458 14 is_stmt 1 view .LVU20
  60 003c 83FA09   		cmpl	$9, %edx
  61 003f 77DA     		ja	.L4
  62              	.LVL7:
  63              	.L1:
 462:lib_convert.cpp ****     }
 463:lib_convert.cpp **** 
 464:lib_convert.cpp ****     return p;
 465:lib_convert.cpp **** }
  64              		.loc 1 465 1 is_stmt 0 view .LVU21
  65 0041 4C89C0   		movq	%r8, %rax
  66 0044 C3       		ret
  67              		.cfi_endproc
  68              	.LFE66:
  69              		.size	_ZL10_uint32toaPcj, .-_ZL10_uint32toaPcj
  70              		.globl	str_to_uint8
  71              		.type	str_to_uint8, @function
  72              	str_to_uint8:
  73              	.LVL8:
  74              	.LFB54:
  15:lib_convert.cpp ****     uint32_t val = 0, pow = 1;
  75              		.loc 1 15 1 is_stmt 1 view -0
  76              		.cfi_startproc
  15:lib_convert.cpp ****     uint32_t val = 0, pow = 1;
  77              		.loc 1 15 1 is_stmt 0 view .LVU23
  78 0045 55       		pushq	%rbp
  79              		.cfi_def_cfa_offset 16
  80              		.cfi_offset 6, -16
  81 0046 53       		pushq	%rbx
  82              		.cfi_def_cfa_offset 24
  83              		.cfi_offset 3, -24
  84 0047 4889FB   		movq	%rdi, %rbx
  85 004a 4889F7   		movq	%rsi, %rdi
  86              	.LVL9:
  15:lib_convert.cpp ****     uint32_t val = 0, pow = 1;
  87              		.loc 1 15 1 view .LVU24
  88 004d 89D5     		movl	%edx, %ebp
  89 004f 4189CA   		movl	%ecx, %r10d
  16:lib_convert.cpp ****     uint8_t i;
  90              		.loc 1 16 5 is_stmt 1 view .LVU25
  91              	.LVL10:
  17:lib_convert.cpp **** 
  92              		.loc 1 17 5 view .LVU26
  20:lib_convert.cpp ****         pow *= 10;
  93              		.loc 1 20 5 view .LVU27
  20:lib_convert.cpp ****         pow *= 10;
GAS LISTING /tmp/cceaV4lG.s 			page 11


  94              		.loc 1 20 19 view .LVU28
  20:lib_convert.cpp ****         pow *= 10;
  95              		.loc 1 20 21 is_stmt 0 view .LVU29
  96 0052 440FB6D9 		movzbl	%cl, %r11d
  20:lib_convert.cpp ****         pow *= 10;
  97              		.loc 1 20 25 view .LVU30
  98 0056 4183EB01 		subl	$1, %r11d
  20:lib_convert.cpp ****         pow *= 10;
  99              		.loc 1 20 19 view .LVU31
 100 005a 80F901   		cmpb	$1, %cl
 101 005d 7635     		jbe	.L7
  20:lib_convert.cpp ****         pow *= 10;
 102              		.loc 1 20 12 view .LVU32
 103 005f BA000000 		movl	$0, %edx
 103      00
 104              	.LVL11:
  16:lib_convert.cpp ****     uint8_t i;
 105              		.loc 1 16 23 view .LVU33
 106 0064 B8010000 		movl	$1, %eax
 106      00
 107              	.LVL12:
 108              	.L8:
  21:lib_convert.cpp ****     }
 109              		.loc 1 21 9 is_stmt 1 discriminator 3 view .LVU34
  21:lib_convert.cpp ****     }
 110              		.loc 1 21 13 is_stmt 0 discriminator 3 view .LVU35
 111 0069 8D0480   		leal	(%rax,%rax,4), %eax
 112              	.LVL13:
  21:lib_convert.cpp ****     }
 113              		.loc 1 21 13 discriminator 3 view .LVU36
 114 006c 01C0     		addl	%eax, %eax
 115              	.LVL14:
  20:lib_convert.cpp ****         pow *= 10;
 116              		.loc 1 20 5 is_stmt 1 discriminator 3 view .LVU37
 117 006e 83C201   		addl	$1, %edx
 118              	.LVL15:
  20:lib_convert.cpp ****         pow *= 10;
 119              		.loc 1 20 19 discriminator 3 view .LVU38
  20:lib_convert.cpp ****         pow *= 10;
 120              		.loc 1 20 17 is_stmt 0 discriminator 3 view .LVU39
 121 0071 0FB6F2   		movzbl	%dl, %esi
  20:lib_convert.cpp ****         pow *= 10;
 122              		.loc 1 20 19 discriminator 3 view .LVU40
 123 0074 4439DE   		cmpl	%r11d, %esi
 124 0077 7CF0     		jl	.L8
 125              	.LVL16:
 126              	.L9:
  20:lib_convert.cpp ****         pow *= 10;
 127              		.loc 1 20 19 discriminator 3 view .LVU41
 128 0079 400FB6CD 		movzbl	%bpl, %ecx
 129              	.LVL17:
  20:lib_convert.cpp ****         pow *= 10;
 130              		.loc 1 20 19 discriminator 3 view .LVU42
 131 007d 4801D9   		addq	%rbx, %rcx
 132 0080 450FB6D2 		movzbl	%r10b, %r10d
 133 0084 4901CA   		addq	%rcx, %r10
  16:lib_convert.cpp ****     uint8_t i;
GAS LISTING /tmp/cceaV4lG.s 			page 12


 134              		.loc 1 16 14 view .LVU43
 135 0087 41BB0000 		movl	$0, %r11d
 135      0000
 136              	.LVL18:
  27:lib_convert.cpp ****     }
 137              		.loc 1 27 13 view .LVU44
 138 008d BBCDCCCC 		movl	$3435973837, %ebx
 138      CC
 139              	.LVL19:
  27:lib_convert.cpp ****     }
 140              		.loc 1 27 13 view .LVU45
 141 0092 EB33     		jmp	.L12
 142              	.LVL20:
 143              	.L7:
  23:lib_convert.cpp ****         if ((str[seek + i] > 47) && (str[seek + i] < 58)) {
 144              		.loc 1 23 19 is_stmt 1 view .LVU46
 145 0094 84C9     		testb	%cl, %cl
 146 0096 7515     		jne	.L21
  29:lib_convert.cpp ****         *out = val;
 147              		.loc 1 29 5 view .LVU47
  16:lib_convert.cpp ****     uint8_t i;
 148              		.loc 1 16 14 is_stmt 0 view .LVU48
 149 0098 41BB0000 		movl	$0, %r11d
 149      0000
  29:lib_convert.cpp ****         *out = val;
 150              		.loc 1 29 5 view .LVU49
 151 009e 4584C0   		testb	%r8b, %r8b
 152 00a1 7558     		jne	.L22
 153              	.LVL21:
 154              	.L14:
  30:lib_convert.cpp ****         return EXIT_SUCCESS;
 155              		.loc 1 30 9 is_stmt 1 view .LVU50
  30:lib_convert.cpp ****         return EXIT_SUCCESS;
 156              		.loc 1 30 14 is_stmt 0 view .LVU51
 157 00a3 44881F   		movb	%r11b, (%rdi)
  31:lib_convert.cpp ****     } else {
 158              		.loc 1 31 9 is_stmt 1 view .LVU52
  31:lib_convert.cpp ****     } else {
 159              		.loc 1 31 16 is_stmt 0 view .LVU53
 160 00a6 B8000000 		movl	$0, %eax
 160      00
 161 00ab EB4B     		jmp	.L6
 162              	.LVL22:
 163              	.L21:
  16:lib_convert.cpp ****     uint8_t i;
 164              		.loc 1 16 23 view .LVU54
 165 00ad B8010000 		movl	$1, %eax
 165      00
 166 00b2 EBC5     		jmp	.L9
 167              	.LVL23:
 168              	.L11:
  27:lib_convert.cpp ****     }
 169              		.loc 1 27 9 is_stmt 1 discriminator 2 view .LVU55
  27:lib_convert.cpp ****     }
 170              		.loc 1 27 13 is_stmt 0 discriminator 2 view .LVU56
 171 00b4 89C0     		movl	%eax, %eax
  27:lib_convert.cpp ****     }
GAS LISTING /tmp/cceaV4lG.s 			page 13


 172              		.loc 1 27 13 discriminator 2 view .LVU57
 173 00b6 480FAFC3 		imulq	%rbx, %rax
 174              	.LVL24:
  27:lib_convert.cpp ****     }
 175              		.loc 1 27 13 discriminator 2 view .LVU58
 176 00ba 48C1E823 		shrq	$35, %rax
  23:lib_convert.cpp ****         if ((str[seek + i] > 47) && (str[seek + i] < 58)) {
 177              		.loc 1 23 5 is_stmt 1 discriminator 2 view .LVU59
 178              	.LVL25:
  23:lib_convert.cpp ****         if ((str[seek + i] > 47) && (str[seek + i] < 58)) {
 179              		.loc 1 23 19 discriminator 2 view .LVU60
 180 00be 4883C101 		addq	$1, %rcx
 181              	.LVL26:
  23:lib_convert.cpp ****         if ((str[seek + i] > 47) && (str[seek + i] < 58)) {
 182              		.loc 1 23 19 is_stmt 0 discriminator 2 view .LVU61
 183 00c2 4C39D1   		cmpq	%r10, %rcx
 184 00c5 741A     		je	.L23
 185              	.LVL27:
 186              	.L12:
  24:lib_convert.cpp ****             val += (str[seek + i] - 48) * pow;
 187              		.loc 1 24 9 is_stmt 1 view .LVU62
  24:lib_convert.cpp ****             val += (str[seek + i] - 48) * pow;
 188              		.loc 1 24 26 is_stmt 0 view .LVU63
 189 00c7 0FB611   		movzbl	(%rcx), %edx
  24:lib_convert.cpp ****             val += (str[seek + i] - 48) * pow;
 190              		.loc 1 24 34 view .LVU64
 191 00ca 8D72D0   		leal	-48(%rdx), %esi
  24:lib_convert.cpp ****             val += (str[seek + i] - 48) * pow;
 192              		.loc 1 24 9 view .LVU65
 193 00cd 4080FE09 		cmpb	$9, %sil
 194 00d1 77E1     		ja	.L11
  25:lib_convert.cpp ****         }
 195              		.loc 1 25 13 is_stmt 1 view .LVU66
  25:lib_convert.cpp ****         }
 196              		.loc 1 25 33 is_stmt 0 view .LVU67
 197 00d3 0FBED2   		movsbl	%dl, %edx
  25:lib_convert.cpp ****         }
 198              		.loc 1 25 35 view .LVU68
 199 00d6 83EA30   		subl	$48, %edx
  25:lib_convert.cpp ****         }
 200              		.loc 1 25 41 view .LVU69
 201 00d9 0FAFD0   		imull	%eax, %edx
  25:lib_convert.cpp ****         }
 202              		.loc 1 25 17 view .LVU70
 203 00dc 4101D3   		addl	%edx, %r11d
 204              	.LVL28:
  25:lib_convert.cpp ****         }
 205              		.loc 1 25 17 view .LVU71
 206 00df EBD3     		jmp	.L11
 207              	.LVL29:
 208              	.L23:
  29:lib_convert.cpp ****         *out = val;
 209              		.loc 1 29 5 is_stmt 1 view .LVU72
  29:lib_convert.cpp ****         *out = val;
 210              		.loc 1 29 17 is_stmt 0 view .LVU73
 211 00e1 450FB6C0 		movzbl	%r8b, %r8d
  33:lib_convert.cpp ****     }
GAS LISTING /tmp/cceaV4lG.s 			page 14


 212              		.loc 1 33 16 view .LVU74
 213 00e5 B8010000 		movl	$1, %eax
 213      00
  29:lib_convert.cpp ****         *out = val;
 214              		.loc 1 29 5 view .LVU75
 215 00ea 4539C3   		cmpl	%r8d, %r11d
 216 00ed 7209     		jb	.L6
  29:lib_convert.cpp ****         *out = val;
 217              		.loc 1 29 33 discriminator 1 view .LVU76
 218 00ef 450FB6C9 		movzbl	%r9b, %r9d
  29:lib_convert.cpp ****         *out = val;
 219              		.loc 1 29 22 discriminator 1 view .LVU77
 220 00f3 4539D9   		cmpl	%r11d, %r9d
 221 00f6 73AB     		jnb	.L14
 222              	.LVL30:
 223              	.L6:
  35:lib_convert.cpp **** 
 224              		.loc 1 35 1 view .LVU78
 225 00f8 5B       		popq	%rbx
 226              		.cfi_remember_state
 227              		.cfi_def_cfa_offset 16
 228 00f9 5D       		popq	%rbp
 229              		.cfi_def_cfa_offset 8
 230 00fa C3       		ret
 231              	.LVL31:
 232              	.L22:
 233              		.cfi_restore_state
  33:lib_convert.cpp ****     }
 234              		.loc 1 33 16 view .LVU79
 235 00fb B8010000 		movl	$1, %eax
 235      00
 236 0100 EBF6     		jmp	.L6
 237              		.cfi_endproc
 238              	.LFE54:
 239              		.size	str_to_uint8, .-str_to_uint8
 240              		.globl	str_to_uint16
 241              		.type	str_to_uint16, @function
 242              	str_to_uint16:
 243              	.LVL32:
 244              	.LFB55:
  39:lib_convert.cpp ****     uint16_t val = 0;
 245              		.loc 1 39 1 is_stmt 1 view -0
 246              		.cfi_startproc
  39:lib_convert.cpp ****     uint16_t val = 0;
 247              		.loc 1 39 1 is_stmt 0 view .LVU81
 248 0102 4989F2   		movq	%rsi, %r10
 249 0105 89D6     		movl	%edx, %esi
 250              	.LVL33:
  40:lib_convert.cpp ****     uint32_t pow = 1;
 251              		.loc 1 40 5 is_stmt 1 view .LVU82
  41:lib_convert.cpp ****     uint8_t i, c;
 252              		.loc 1 41 5 view .LVU83
  42:lib_convert.cpp **** 
 253              		.loc 1 42 5 view .LVU84
  44:lib_convert.cpp ****         c = str[i - 1] - 48;
 254              		.loc 1 44 5 view .LVU85
  44:lib_convert.cpp ****         c = str[i - 1] - 48;
GAS LISTING /tmp/cceaV4lG.s 			page 15


 255              		.loc 1 44 12 is_stmt 0 view .LVU86
 256 0107 8D4101   		leal	1(%rcx), %eax
 257              	.LVL34:
  44:lib_convert.cpp ****         c = str[i - 1] - 48;
 258              		.loc 1 44 25 is_stmt 1 view .LVU87
 259 010a 38C2     		cmpb	%al, %dl
 260 010c 7348     		jnb	.L30
 261 010e 0FB6C0   		movzbl	%al, %eax
  44:lib_convert.cpp ****         c = str[i - 1] - 48;
 262              		.loc 1 44 25 is_stmt 0 view .LVU88
 263 0111 488D5407 		leaq	-1(%rdi,%rax), %rdx
 263      FF
 264              	.LVL35:
  44:lib_convert.cpp ****         c = str[i - 1] - 48;
 265              		.loc 1 44 25 view .LVU89
 266 0116 488D7C07 		leaq	-2(%rdi,%rax), %rdi
 266      FE
 267              	.LVL36:
  44:lib_convert.cpp ****         c = str[i - 1] - 48;
 268              		.loc 1 44 25 view .LVU90
 269 011b 29F1     		subl	%esi, %ecx
 270              	.LVL37:
  44:lib_convert.cpp ****         c = str[i - 1] - 48;
 271              		.loc 1 44 25 view .LVU91
 272 011d 0FB6C9   		movzbl	%cl, %ecx
 273 0120 4829CF   		subq	%rcx, %rdi
  41:lib_convert.cpp ****     uint8_t i, c;
 274              		.loc 1 41 14 view .LVU92
 275 0123 B9010000 		movl	$1, %ecx
 275      00
  40:lib_convert.cpp ****     uint32_t pow = 1;
 276              		.loc 1 40 14 view .LVU93
 277 0128 BE000000 		movl	$0, %esi
 277      00
 278 012d EB0E     		jmp	.L28
 279              	.LVL38:
 280              	.L26:
  50:lib_convert.cpp ****                 // if we already have a number and this char is unexpected
 281              		.loc 1 50 13 is_stmt 1 view .LVU94
 282 012f 6685F6   		testw	%si, %si
 283 0132 7527     		jne	.L25
 284              	.LVL39:
 285              	.L27:
  44:lib_convert.cpp ****         c = str[i - 1] - 48;
 286              		.loc 1 44 5 discriminator 2 view .LVU95
  44:lib_convert.cpp ****         c = str[i - 1] - 48;
 287              		.loc 1 44 25 discriminator 2 view .LVU96
 288 0134 4883EA01 		subq	$1, %rdx
 289              	.LVL40:
  44:lib_convert.cpp ****         c = str[i - 1] - 48;
 290              		.loc 1 44 25 is_stmt 0 discriminator 2 view .LVU97
 291 0138 4839FA   		cmpq	%rdi, %rdx
 292 013b 741E     		je	.L25
 293              	.LVL41:
 294              	.L28:
  45:lib_convert.cpp ****         if (c < 10) {
 295              		.loc 1 45 9 is_stmt 1 view .LVU98
GAS LISTING /tmp/cceaV4lG.s 			page 16


  45:lib_convert.cpp ****         if (c < 10) {
 296              		.loc 1 45 11 is_stmt 0 view .LVU99
 297 013d 0FB602   		movzbl	(%rdx), %eax
 298 0140 83E830   		subl	$48, %eax
 299              	.LVL42:
  46:lib_convert.cpp ****             val += c * pow;
 300              		.loc 1 46 9 is_stmt 1 view .LVU100
 301 0143 3C09     		cmpb	$9, %al
 302 0145 77E8     		ja	.L26
  47:lib_convert.cpp ****             pow *= 10;
 303              		.loc 1 47 13 view .LVU101
  47:lib_convert.cpp ****             pow *= 10;
 304              		.loc 1 47 17 is_stmt 0 view .LVU102
 305 0147 0FB6C0   		movzbl	%al, %eax
  47:lib_convert.cpp ****             pow *= 10;
 306              		.loc 1 47 17 view .LVU103
 307 014a 0FAFC1   		imull	%ecx, %eax
 308              	.LVL43:
  47:lib_convert.cpp ****             pow *= 10;
 309              		.loc 1 47 17 view .LVU104
 310 014d 01C6     		addl	%eax, %esi
 311              	.LVL44:
  48:lib_convert.cpp ****         } else {
 312              		.loc 1 48 13 is_stmt 1 view .LVU105
  48:lib_convert.cpp ****         } else {
 313              		.loc 1 48 17 is_stmt 0 view .LVU106
 314 014f 8D0C89   		leal	(%rcx,%rcx,4), %ecx
 315              	.LVL45:
  48:lib_convert.cpp ****         } else {
 316              		.loc 1 48 17 view .LVU107
 317 0152 01C9     		addl	%ecx, %ecx
 318              	.LVL46:
  48:lib_convert.cpp ****         } else {
 319              		.loc 1 48 17 view .LVU108
 320 0154 EBDE     		jmp	.L27
 321              	.LVL47:
 322              	.L30:
  40:lib_convert.cpp ****     uint32_t pow = 1;
 323              		.loc 1 40 14 view .LVU109
 324 0156 BE000000 		movl	$0, %esi
 324      00
 325              	.LVL48:
 326              	.L25:
  57:lib_convert.cpp ****         *out = val;
 327              		.loc 1 57 5 is_stmt 1 view .LVU110
 328 015b 664439C6 		cmpw	%r8w, %si
 329 015f 7210     		jb	.L31
 330 0161 664439CE 		cmpw	%r9w, %si
 331 0165 770A     		ja	.L31
  58:lib_convert.cpp ****     } else {
 332              		.loc 1 58 9 view .LVU111
  58:lib_convert.cpp ****     } else {
 333              		.loc 1 58 14 is_stmt 0 view .LVU112
 334 0167 66418932 		movw	%si, (%r10)
  63:lib_convert.cpp **** }
 335              		.loc 1 63 5 is_stmt 1 view .LVU113
  63:lib_convert.cpp **** }
GAS LISTING /tmp/cceaV4lG.s 			page 17


 336              		.loc 1 63 12 is_stmt 0 view .LVU114
 337 016b B8000000 		movl	$0, %eax
 337      00
 338 0170 C3       		ret
 339              	.L31:
  60:lib_convert.cpp ****     }
 340              		.loc 1 60 16 view .LVU115
 341 0171 B8010000 		movl	$1, %eax
 341      00
  64:lib_convert.cpp **** 
 342              		.loc 1 64 1 view .LVU116
 343 0176 C3       		ret
 344              		.cfi_endproc
 345              	.LFE55:
 346              		.size	str_to_uint16, .-str_to_uint16
 347              		.globl	str_to_uint32
 348              		.type	str_to_uint32, @function
 349              	str_to_uint32:
 350              	.LVL49:
 351              	.LFB56:
  68:lib_convert.cpp ****     uint32_t val = 0, pow = 1;
 352              		.loc 1 68 1 is_stmt 1 view -0
 353              		.cfi_startproc
  68:lib_convert.cpp ****     uint32_t val = 0, pow = 1;
 354              		.loc 1 68 1 is_stmt 0 view .LVU118
 355 0177 53       		pushq	%rbx
 356              		.cfi_def_cfa_offset 16
 357              		.cfi_offset 3, -16
 358 0178 4889FB   		movq	%rdi, %rbx
 359 017b 4889F7   		movq	%rsi, %rdi
 360              	.LVL50:
  68:lib_convert.cpp ****     uint32_t val = 0, pow = 1;
 361              		.loc 1 68 1 view .LVU119
 362 017e 89D6     		movl	%edx, %esi
 363              	.LVL51:
  68:lib_convert.cpp ****     uint32_t val = 0, pow = 1;
 364              		.loc 1 68 1 view .LVU120
 365 0180 4189CA   		movl	%ecx, %r10d
  69:lib_convert.cpp ****     uint8_t i;
 366              		.loc 1 69 5 is_stmt 1 view .LVU121
 367              	.LVL52:
  70:lib_convert.cpp **** 
 368              		.loc 1 70 5 view .LVU122
  73:lib_convert.cpp ****         pow *= 10;
 369              		.loc 1 73 5 view .LVU123
  73:lib_convert.cpp ****         pow *= 10;
 370              		.loc 1 73 19 view .LVU124
  73:lib_convert.cpp ****         pow *= 10;
 371              		.loc 1 73 21 is_stmt 0 view .LVU125
 372 0183 440FB6D9 		movzbl	%cl, %r11d
  73:lib_convert.cpp ****         pow *= 10;
 373              		.loc 1 73 25 view .LVU126
 374 0187 4183EB01 		subl	$1, %r11d
  73:lib_convert.cpp ****         pow *= 10;
 375              		.loc 1 73 19 view .LVU127
 376 018b 80F901   		cmpb	$1, %cl
 377 018e 7635     		jbe	.L34
GAS LISTING /tmp/cceaV4lG.s 			page 18


  73:lib_convert.cpp ****         pow *= 10;
 378              		.loc 1 73 12 view .LVU128
 379 0190 BA000000 		movl	$0, %edx
 379      00
 380              	.LVL53:
  69:lib_convert.cpp ****     uint8_t i;
 381              		.loc 1 69 23 view .LVU129
 382 0195 B8010000 		movl	$1, %eax
 382      00
 383              	.LVL54:
 384              	.L35:
  74:lib_convert.cpp ****     }
 385              		.loc 1 74 9 is_stmt 1 discriminator 3 view .LVU130
  74:lib_convert.cpp ****     }
 386              		.loc 1 74 13 is_stmt 0 discriminator 3 view .LVU131
 387 019a 8D0480   		leal	(%rax,%rax,4), %eax
 388              	.LVL55:
  74:lib_convert.cpp ****     }
 389              		.loc 1 74 13 discriminator 3 view .LVU132
 390 019d 01C0     		addl	%eax, %eax
 391              	.LVL56:
  73:lib_convert.cpp ****         pow *= 10;
 392              		.loc 1 73 5 is_stmt 1 discriminator 3 view .LVU133
 393 019f 83C201   		addl	$1, %edx
 394              	.LVL57:
  73:lib_convert.cpp ****         pow *= 10;
 395              		.loc 1 73 19 discriminator 3 view .LVU134
  73:lib_convert.cpp ****         pow *= 10;
 396              		.loc 1 73 17 is_stmt 0 discriminator 3 view .LVU135
 397 01a2 0FB6CA   		movzbl	%dl, %ecx
  73:lib_convert.cpp ****         pow *= 10;
 398              		.loc 1 73 19 discriminator 3 view .LVU136
 399 01a5 4439D9   		cmpl	%r11d, %ecx
 400 01a8 7CF0     		jl	.L35
 401              	.LVL58:
 402              	.L36:
  73:lib_convert.cpp ****         pow *= 10;
 403              		.loc 1 73 19 discriminator 3 view .LVU137
 404 01aa 400FB6F6 		movzbl	%sil, %esi
 405 01ae 4801DE   		addq	%rbx, %rsi
 406 01b1 450FB6D2 		movzbl	%r10b, %r10d
 407 01b5 4901F2   		addq	%rsi, %r10
  69:lib_convert.cpp ****     uint8_t i;
 408              		.loc 1 69 14 view .LVU138
 409 01b8 B9000000 		movl	$0, %ecx
 409      00
  80:lib_convert.cpp ****         }
 410              		.loc 1 80 17 view .LVU139
 411 01bd 41BBCDCC 		movl	$3435973837, %r11d
 411      CCCC
 412              	.LVL59:
  80:lib_convert.cpp ****         }
 413              		.loc 1 80 17 view .LVU140
 414 01c3 EB40     		jmp	.L40
 415              	.LVL60:
 416              	.L34:
  76:lib_convert.cpp ****         if ((str[seek + i] > 47) && (str[seek + i] < 58)) {
GAS LISTING /tmp/cceaV4lG.s 			page 19


 417              		.loc 1 76 19 is_stmt 1 view .LVU141
 418 01c5 84C9     		testb	%cl, %cl
 419 01c7 7518     		jne	.L47
  69:lib_convert.cpp ****     uint8_t i;
 420              		.loc 1 69 14 is_stmt 0 view .LVU142
 421 01c9 B9000000 		movl	$0, %ecx
 421      00
 422              	.LVL61:
 423              	.L37:
  84:lib_convert.cpp ****         *out = val;
 424              		.loc 1 84 5 is_stmt 1 view .LVU143
 425 01ce 4439C1   		cmpl	%r8d, %ecx
 426 01d1 724A     		jb	.L43
 427 01d3 4139C9   		cmpl	%ecx, %r9d
 428 01d6 7245     		jb	.L43
  85:lib_convert.cpp ****         return EXIT_SUCCESS;
 429              		.loc 1 85 9 view .LVU144
  85:lib_convert.cpp ****         return EXIT_SUCCESS;
 430              		.loc 1 85 14 is_stmt 0 view .LVU145
 431 01d8 890F     		movl	%ecx, (%rdi)
  86:lib_convert.cpp ****     } else {
 432              		.loc 1 86 9 is_stmt 1 view .LVU146
  86:lib_convert.cpp ****     } else {
 433              		.loc 1 86 16 is_stmt 0 view .LVU147
 434 01da B8000000 		movl	$0, %eax
 434      00
 435              	.L33:
  90:lib_convert.cpp **** 
 436              		.loc 1 90 1 view .LVU148
 437 01df 5B       		popq	%rbx
 438              		.cfi_remember_state
 439              		.cfi_def_cfa_offset 8
 440 01e0 C3       		ret
 441              	.LVL62:
 442              	.L47:
 443              		.cfi_restore_state
  69:lib_convert.cpp ****     uint8_t i;
 444              		.loc 1 69 23 view .LVU149
 445 01e1 B8010000 		movl	$1, %eax
 445      00
 446 01e6 EBC2     		jmp	.L36
 447              	.LVL63:
 448              	.L38:
  80:lib_convert.cpp ****         }
 449              		.loc 1 80 13 is_stmt 1 view .LVU150
  80:lib_convert.cpp ****         }
 450              		.loc 1 80 17 is_stmt 0 view .LVU151
 451 01e8 89C9     		movl	%ecx, %ecx
  80:lib_convert.cpp ****         }
 452              		.loc 1 80 17 view .LVU152
 453 01ea 490FAFCB 		imulq	%r11, %rcx
 454              	.LVL64:
  80:lib_convert.cpp ****         }
 455              		.loc 1 80 17 view .LVU153
 456 01ee 48C1E923 		shrq	$35, %rcx
 457              	.LVL65:
 458              	.L39:
GAS LISTING /tmp/cceaV4lG.s 			page 20


  82:lib_convert.cpp ****     }
 459              		.loc 1 82 9 is_stmt 1 discriminator 2 view .LVU154
  82:lib_convert.cpp ****     }
 460              		.loc 1 82 13 is_stmt 0 discriminator 2 view .LVU155
 461 01f2 89C0     		movl	%eax, %eax
  82:lib_convert.cpp ****     }
 462              		.loc 1 82 13 discriminator 2 view .LVU156
 463 01f4 490FAFC3 		imulq	%r11, %rax
 464              	.LVL66:
  82:lib_convert.cpp ****     }
 465              		.loc 1 82 13 discriminator 2 view .LVU157
 466 01f8 48C1E823 		shrq	$35, %rax
  76:lib_convert.cpp ****         if ((str[seek + i] > 47) && (str[seek + i] < 58)) {
 467              		.loc 1 76 5 is_stmt 1 discriminator 2 view .LVU158
  76:lib_convert.cpp ****         if ((str[seek + i] > 47) && (str[seek + i] < 58)) {
 468              		.loc 1 76 19 discriminator 2 view .LVU159
 469 01fc 4883C601 		addq	$1, %rsi
  76:lib_convert.cpp ****         if ((str[seek + i] > 47) && (str[seek + i] < 58)) {
 470              		.loc 1 76 19 is_stmt 0 discriminator 2 view .LVU160
 471 0200 4C39D6   		cmpq	%r10, %rsi
 472 0203 74C9     		je	.L37
 473              	.LVL67:
 474              	.L40:
  77:lib_convert.cpp ****             val += (str[seek + i] - 48) * pow;
 475              		.loc 1 77 9 is_stmt 1 view .LVU161
  77:lib_convert.cpp ****             val += (str[seek + i] - 48) * pow;
 476              		.loc 1 77 26 is_stmt 0 view .LVU162
 477 0205 0FB616   		movzbl	(%rsi), %edx
  77:lib_convert.cpp ****             val += (str[seek + i] - 48) * pow;
 478              		.loc 1 77 34 view .LVU163
 479 0208 8D5AD0   		leal	-48(%rdx), %ebx
  77:lib_convert.cpp ****             val += (str[seek + i] - 48) * pow;
 480              		.loc 1 77 9 view .LVU164
 481 020b 80FB09   		cmpb	$9, %bl
 482 020e 77D8     		ja	.L38
  78:lib_convert.cpp ****         } else {
 483              		.loc 1 78 13 is_stmt 1 view .LVU165
  78:lib_convert.cpp ****         } else {
 484              		.loc 1 78 33 is_stmt 0 view .LVU166
 485 0210 0FBED2   		movsbl	%dl, %edx
  78:lib_convert.cpp ****         } else {
 486              		.loc 1 78 35 view .LVU167
 487 0213 83EA30   		subl	$48, %edx
  78:lib_convert.cpp ****         } else {
 488              		.loc 1 78 41 view .LVU168
 489 0216 0FAFD0   		imull	%eax, %edx
  78:lib_convert.cpp ****         } else {
 490              		.loc 1 78 17 view .LVU169
 491 0219 01D1     		addl	%edx, %ecx
 492              	.LVL68:
  78:lib_convert.cpp ****         } else {
 493              		.loc 1 78 17 view .LVU170
 494 021b EBD5     		jmp	.L39
 495              	.LVL69:
 496              	.L43:
  88:lib_convert.cpp ****     }
 497              		.loc 1 88 16 view .LVU171
GAS LISTING /tmp/cceaV4lG.s 			page 21


 498 021d B8010000 		movl	$1, %eax
 498      00
 499 0222 EBBB     		jmp	.L33
 500              		.cfi_endproc
 501              	.LFE56:
 502              		.size	str_to_uint32, .-str_to_uint32
 503              		.globl	str_to_int32
 504              		.type	str_to_int32, @function
 505              	str_to_int32:
 506              	.LVL70:
 507              	.LFB57:
  94:lib_convert.cpp ****     int32_t val = 0;
 508              		.loc 1 94 1 is_stmt 1 view -0
 509              		.cfi_startproc
  94:lib_convert.cpp ****     int32_t val = 0;
 510              		.loc 1 94 1 is_stmt 0 view .LVU173
 511 0224 4154     		pushq	%r12
 512              		.cfi_def_cfa_offset 16
 513              		.cfi_offset 12, -16
 514 0226 55       		pushq	%rbp
 515              		.cfi_def_cfa_offset 24
 516              		.cfi_offset 6, -24
 517 0227 53       		pushq	%rbx
 518              		.cfi_def_cfa_offset 32
 519              		.cfi_offset 3, -32
 520 0228 4889FB   		movq	%rdi, %rbx
 521 022b 4989F3   		movq	%rsi, %r11
 522 022e 89D5     		movl	%edx, %ebp
 523 0230 89CF     		movl	%ecx, %edi
 524              	.LVL71:
  95:lib_convert.cpp ****     uint32_t pow = 1;
 525              		.loc 1 95 5 is_stmt 1 view .LVU174
  96:lib_convert.cpp ****     uint8_t i;
 526              		.loc 1 96 5 view .LVU175
  97:lib_convert.cpp ****     int8_t sign = 1;
 527              		.loc 1 97 5 view .LVU176
  98:lib_convert.cpp **** 
 528              		.loc 1 98 5 view .LVU177
 101:lib_convert.cpp ****         pow *= 10;
 529              		.loc 1 101 5 view .LVU178
 101:lib_convert.cpp ****         pow *= 10;
 530              		.loc 1 101 19 view .LVU179
 101:lib_convert.cpp ****         pow *= 10;
 531              		.loc 1 101 21 is_stmt 0 view .LVU180
 532 0232 440FB6D1 		movzbl	%cl, %r10d
 101:lib_convert.cpp ****         pow *= 10;
 533              		.loc 1 101 25 view .LVU181
 534 0236 4183EA01 		subl	$1, %r10d
 101:lib_convert.cpp ****         pow *= 10;
 535              		.loc 1 101 19 view .LVU182
 536 023a 80F901   		cmpb	$1, %cl
 537 023d 7640     		jbe	.L49
 101:lib_convert.cpp ****         pow *= 10;
 538              		.loc 1 101 12 view .LVU183
 539 023f BA000000 		movl	$0, %edx
 539      00
 540              	.LVL72:
GAS LISTING /tmp/cceaV4lG.s 			page 22


  96:lib_convert.cpp ****     uint8_t i;
 541              		.loc 1 96 14 view .LVU184
 542 0244 B8010000 		movl	$1, %eax
 542      00
 543              	.LVL73:
 544              	.L50:
 102:lib_convert.cpp ****     }
 545              		.loc 1 102 9 is_stmt 1 discriminator 3 view .LVU185
 102:lib_convert.cpp ****     }
 546              		.loc 1 102 13 is_stmt 0 discriminator 3 view .LVU186
 547 0249 8D0480   		leal	(%rax,%rax,4), %eax
 548              	.LVL74:
 102:lib_convert.cpp ****     }
 549              		.loc 1 102 13 discriminator 3 view .LVU187
 550 024c 01C0     		addl	%eax, %eax
 551              	.LVL75:
 101:lib_convert.cpp ****         pow *= 10;
 552              		.loc 1 101 5 is_stmt 1 discriminator 3 view .LVU188
 553 024e 83C201   		addl	$1, %edx
 554              	.LVL76:
 101:lib_convert.cpp ****         pow *= 10;
 555              		.loc 1 101 19 discriminator 3 view .LVU189
 101:lib_convert.cpp ****         pow *= 10;
 556              		.loc 1 101 17 is_stmt 0 discriminator 3 view .LVU190
 557 0251 0FB6F2   		movzbl	%dl, %esi
 101:lib_convert.cpp ****         pow *= 10;
 558              		.loc 1 101 19 discriminator 3 view .LVU191
 559 0254 4439D6   		cmpl	%r10d, %esi
 560 0257 7CF0     		jl	.L50
 561              	.LVL77:
 562              	.L51:
 101:lib_convert.cpp ****         pow *= 10;
 563              		.loc 1 101 19 discriminator 3 view .LVU192
 564 0259 400FB6ED 		movzbl	%bpl, %ebp
 565 025d 488D0C2B 		leaq	(%rbx,%rbp), %rcx
 566              	.LVL78:
 101:lib_convert.cpp ****         pow *= 10;
 567              		.loc 1 101 19 discriminator 3 view .LVU193
 568 0261 400FB6FF 		movzbl	%dil, %edi
 569 0265 4801CF   		addq	%rcx, %rdi
  98:lib_convert.cpp **** 
 570              		.loc 1 98 12 view .LVU194
 571 0268 BB010000 		movl	$1, %ebx
 571      00
 572              	.LVL79:
  95:lib_convert.cpp ****     uint32_t pow = 1;
 573              		.loc 1 95 13 view .LVU195
 574 026d BE000000 		movl	$0, %esi
 574      00
 108:lib_convert.cpp ****         } else {
 575              		.loc 1 108 18 view .LVU196
 576 0272 BDFFFFFF 		movl	$-1, %ebp
 576      FF
 112:lib_convert.cpp ****     }
 577              		.loc 1 112 13 view .LVU197
 578 0277 41BACDCC 		movl	$3435973837, %r10d
 578      CCCC
GAS LISTING /tmp/cceaV4lG.s 			page 23


 579              	.LVL80:
 112:lib_convert.cpp ****     }
 580              		.loc 1 112 13 view .LVU198
 581 027d EB63     		jmp	.L55
 582              	.LVL81:
 583              	.L49:
 104:lib_convert.cpp ****         if ((str[seek + i] > 47) && (str[seek + i] < 58)) {
 584              		.loc 1 104 19 is_stmt 1 view .LVU199
 585 027f 84C9     		testb	%cl, %cl
 586 0281 7527     		jne	.L63
  98:lib_convert.cpp **** 
 587              		.loc 1 98 12 is_stmt 0 view .LVU200
 588 0283 BB010000 		movl	$1, %ebx
 588      00
 589              	.LVL82:
  95:lib_convert.cpp ****     uint32_t pow = 1;
 590              		.loc 1 95 13 view .LVU201
 591 0288 BE000000 		movl	$0, %esi
 591      00
 592              	.LVL83:
 593              	.L52:
 114:lib_convert.cpp ****         *out = val * sign;
 594              		.loc 1 114 5 is_stmt 1 view .LVU202
 595 028d 4139F0   		cmpl	%esi, %r8d
 596 0290 7F6E     		jg	.L59
 597 0292 4139F1   		cmpl	%esi, %r9d
 598 0295 7C69     		jl	.L59
 115:lib_convert.cpp ****         return EXIT_SUCCESS;
 599              		.loc 1 115 9 view .LVU203
 115:lib_convert.cpp ****         return EXIT_SUCCESS;
 600              		.loc 1 115 22 is_stmt 0 view .LVU204
 601 0297 0FBEDB   		movsbl	%bl, %ebx
 115:lib_convert.cpp ****         return EXIT_SUCCESS;
 602              		.loc 1 115 20 view .LVU205
 603 029a 0FAFDE   		imull	%esi, %ebx
 115:lib_convert.cpp ****         return EXIT_SUCCESS;
 604              		.loc 1 115 14 view .LVU206
 605 029d 41891B   		movl	%ebx, (%r11)
 116:lib_convert.cpp ****     } else {
 606              		.loc 1 116 9 is_stmt 1 view .LVU207
 116:lib_convert.cpp ****     } else {
 607              		.loc 1 116 16 is_stmt 0 view .LVU208
 608 02a0 B8000000 		movl	$0, %eax
 608      00
 609              	.L48:
 120:lib_convert.cpp **** 
 610              		.loc 1 120 1 view .LVU209
 611 02a5 5B       		popq	%rbx
 612              		.cfi_remember_state
 613              		.cfi_def_cfa_offset 24
 614 02a6 5D       		popq	%rbp
 615              		.cfi_def_cfa_offset 16
 616 02a7 415C     		popq	%r12
 617              		.cfi_def_cfa_offset 8
 618 02a9 C3       		ret
 619              	.LVL84:
 620              	.L63:
GAS LISTING /tmp/cceaV4lG.s 			page 24


 621              		.cfi_restore_state
  96:lib_convert.cpp ****     uint8_t i;
 622              		.loc 1 96 14 view .LVU210
 623 02aa B8010000 		movl	$1, %eax
 623      00
 624 02af EBA8     		jmp	.L51
 625              	.LVL85:
 626              	.L53:
 107:lib_convert.cpp ****             sign = -1;
 627              		.loc 1 107 16 is_stmt 1 view .LVU211
 628 02b1 80FA2D   		cmpb	$45, %dl
 629 02b4 7446     		je	.L58
 110:lib_convert.cpp ****         }
 630              		.loc 1 110 13 view .LVU212
 110:lib_convert.cpp ****         }
 631              		.loc 1 110 17 is_stmt 0 view .LVU213
 632 02b6 4863D6   		movslq	%esi, %rdx
 633 02b9 4869D267 		imulq	$1717986919, %rdx, %rdx
 633      666666
 634 02c0 48C1FA22 		sarq	$34, %rdx
 635 02c4 C1FE1F   		sarl	$31, %esi
 636              	.LVL86:
 110:lib_convert.cpp ****         }
 637              		.loc 1 110 17 view .LVU214
 638 02c7 4189F4   		movl	%esi, %r12d
 639 02ca 89D6     		movl	%edx, %esi
 640 02cc 4429E6   		subl	%r12d, %esi
 641              	.LVL87:
 642              	.L54:
 112:lib_convert.cpp ****     }
 643              		.loc 1 112 9 is_stmt 1 discriminator 2 view .LVU215
 112:lib_convert.cpp ****     }
 644              		.loc 1 112 13 is_stmt 0 discriminator 2 view .LVU216
 645 02cf 89C0     		movl	%eax, %eax
 112:lib_convert.cpp ****     }
 646              		.loc 1 112 13 discriminator 2 view .LVU217
 647 02d1 490FAFC2 		imulq	%r10, %rax
 648              	.LVL88:
 112:lib_convert.cpp ****     }
 649              		.loc 1 112 13 discriminator 2 view .LVU218
 650 02d5 48C1E823 		shrq	$35, %rax
 104:lib_convert.cpp ****         if ((str[seek + i] > 47) && (str[seek + i] < 58)) {
 651              		.loc 1 104 5 is_stmt 1 discriminator 2 view .LVU219
 104:lib_convert.cpp ****         if ((str[seek + i] > 47) && (str[seek + i] < 58)) {
 652              		.loc 1 104 19 discriminator 2 view .LVU220
 653 02d9 4883C101 		addq	$1, %rcx
 104:lib_convert.cpp ****         if ((str[seek + i] > 47) && (str[seek + i] < 58)) {
 654              		.loc 1 104 19 is_stmt 0 discriminator 2 view .LVU221
 655 02dd 4839F9   		cmpq	%rdi, %rcx
 656 02e0 74AB     		je	.L52
 657              	.LVL89:
 658              	.L55:
 105:lib_convert.cpp ****             val += (str[seek + i] - 48) * pow;
 659              		.loc 1 105 9 is_stmt 1 view .LVU222
 105:lib_convert.cpp ****             val += (str[seek + i] - 48) * pow;
 660              		.loc 1 105 26 is_stmt 0 view .LVU223
 661 02e2 0FB611   		movzbl	(%rcx), %edx
GAS LISTING /tmp/cceaV4lG.s 			page 25


 105:lib_convert.cpp ****             val += (str[seek + i] - 48) * pow;
 662              		.loc 1 105 34 view .LVU224
 663 02e5 448D62D0 		leal	-48(%rdx), %r12d
 105:lib_convert.cpp ****             val += (str[seek + i] - 48) * pow;
 664              		.loc 1 105 9 view .LVU225
 665 02e9 4180FC09 		cmpb	$9, %r12b
 666 02ed 77C2     		ja	.L53
 106:lib_convert.cpp ****         } else if (str[seek + i] == 45) {
 667              		.loc 1 106 13 is_stmt 1 view .LVU226
 106:lib_convert.cpp ****         } else if (str[seek + i] == 45) {
 668              		.loc 1 106 33 is_stmt 0 view .LVU227
 669 02ef 0FBED2   		movsbl	%dl, %edx
 106:lib_convert.cpp ****         } else if (str[seek + i] == 45) {
 670              		.loc 1 106 35 view .LVU228
 671 02f2 83EA30   		subl	$48, %edx
 106:lib_convert.cpp ****         } else if (str[seek + i] == 45) {
 672              		.loc 1 106 41 view .LVU229
 673 02f5 0FAFD0   		imull	%eax, %edx
 106:lib_convert.cpp ****         } else if (str[seek + i] == 45) {
 674              		.loc 1 106 17 view .LVU230
 675 02f8 01D6     		addl	%edx, %esi
 676              	.LVL90:
 106:lib_convert.cpp ****         } else if (str[seek + i] == 45) {
 677              		.loc 1 106 17 view .LVU231
 678 02fa EBD3     		jmp	.L54
 679              	.L58:
 108:lib_convert.cpp ****         } else {
 680              		.loc 1 108 18 view .LVU232
 681 02fc 89EB     		movl	%ebp, %ebx
 682              	.LVL91:
 108:lib_convert.cpp ****         } else {
 683              		.loc 1 108 18 view .LVU233
 684 02fe EBCF     		jmp	.L54
 685              	.LVL92:
 686              	.L59:
 118:lib_convert.cpp ****     }
 687              		.loc 1 118 16 view .LVU234
 688 0300 B8010000 		movl	$1, %eax
 688      00
 689 0305 EB9E     		jmp	.L48
 690              		.cfi_endproc
 691              	.LFE57:
 692              		.size	str_to_int32, .-str_to_int32
 693              		.globl	hstr_to_uint8
 694              		.type	hstr_to_uint8, @function
 695              	hstr_to_uint8:
 696              	.LVL93:
 697              	.LFB58:
 124:lib_convert.cpp ****     uint8_t val = 0;
 698              		.loc 1 124 1 is_stmt 1 view -0
 699              		.cfi_startproc
 124:lib_convert.cpp ****     uint8_t val = 0;
 700              		.loc 1 124 1 is_stmt 0 view .LVU236
 701 0307 53       		pushq	%rbx
 702              		.cfi_def_cfa_offset 16
 703              		.cfi_offset 3, -16
 704 0308 4989F2   		movq	%rsi, %r10
GAS LISTING /tmp/cceaV4lG.s 			page 26


 705 030b 89D3     		movl	%edx, %ebx
 706 030d 89D6     		movl	%edx, %esi
 707              	.LVL94:
 124:lib_convert.cpp ****     uint8_t val = 0;
 708              		.loc 1 124 1 view .LVU237
 709 030f 4189CB   		movl	%ecx, %r11d
 125:lib_convert.cpp ****     uint32_t pow = 1;
 710              		.loc 1 125 5 is_stmt 1 view .LVU238
 711              	.LVL95:
 126:lib_convert.cpp ****     uint8_t i;
 712              		.loc 1 126 5 view .LVU239
 127:lib_convert.cpp **** 
 713              		.loc 1 127 5 view .LVU240
 130:lib_convert.cpp ****         pow *= 16;
 714              		.loc 1 130 5 view .LVU241
 130:lib_convert.cpp ****         pow *= 16;
 715              		.loc 1 130 22 view .LVU242
 716 0312 38CA     		cmpb	%cl, %dl
 717 0314 731D     		jnb	.L74
 130:lib_convert.cpp ****         pow *= 16;
 718              		.loc 1 130 12 is_stmt 0 view .LVU243
 719 0316 89D0     		movl	%edx, %eax
 126:lib_convert.cpp ****     uint8_t i;
 720              		.loc 1 126 14 view .LVU244
 721 0318 BA010000 		movl	$1, %edx
 721      00
 722              	.LVL96:
 723              	.L66:
 131:lib_convert.cpp ****     }
 724              		.loc 1 131 9 is_stmt 1 discriminator 3 view .LVU245
 131:lib_convert.cpp ****     }
 725              		.loc 1 131 13 is_stmt 0 discriminator 3 view .LVU246
 726 031d C1E204   		sall	$4, %edx
 727              	.LVL97:
 130:lib_convert.cpp ****         pow *= 16;
 728              		.loc 1 130 5 is_stmt 1 discriminator 3 view .LVU247
 729 0320 83C001   		addl	$1, %eax
 730              	.LVL98:
 130:lib_convert.cpp ****         pow *= 16;
 731              		.loc 1 130 22 discriminator 3 view .LVU248
 732 0323 4138C3   		cmpb	%al, %r11b
 733 0326 75F5     		jne	.L66
 734              	.LVL99:
 735              	.L65:
 134:lib_convert.cpp ****         if ((str[i] > 47) && (str[i] < 58)) {
 736              		.loc 1 134 22 view .LVU249
 737 0328 38D9     		cmpb	%bl, %cl
 738 032a 726C     		jb	.L67
 125:lib_convert.cpp ****     uint32_t pow = 1;
 739              		.loc 1 125 13 is_stmt 0 view .LVU250
 740 032c B9000000 		movl	$0, %ecx
 740      00
 741              	.LVL100:
 125:lib_convert.cpp ****     uint32_t pow = 1;
 742              		.loc 1 125 13 view .LVU251
 743 0331 EB22     		jmp	.L71
 744              	.LVL101:
GAS LISTING /tmp/cceaV4lG.s 			page 27


 745              	.L74:
 126:lib_convert.cpp ****     uint8_t i;
 746              		.loc 1 126 14 view .LVU252
 747 0333 BA010000 		movl	$1, %edx
 747      00
 748              	.LVL102:
 126:lib_convert.cpp ****     uint8_t i;
 749              		.loc 1 126 14 view .LVU253
 750 0338 EBEE     		jmp	.L65
 751              	.LVL103:
 752              	.L68:
 138:lib_convert.cpp ****             // a - f
 753              		.loc 1 138 16 is_stmt 1 view .LVU254
 138:lib_convert.cpp ****             // a - f
 754              		.loc 1 138 34 is_stmt 0 view .LVU255
 755 033a 8D589F   		leal	-97(%rax), %ebx
 138:lib_convert.cpp ****             // a - f
 756              		.loc 1 138 16 view .LVU256
 757 033d 80FB05   		cmpb	$5, %bl
 758 0340 772C     		ja	.L70
 140:lib_convert.cpp ****         } else if ((str[i] > 64) && (str[i] < 71)) {
 759              		.loc 1 140 13 is_stmt 1 view .LVU257
 140:lib_convert.cpp ****         } else if ((str[i] > 64) && (str[i] < 71)) {
 760              		.loc 1 140 28 is_stmt 0 view .LVU258
 761 0342 83E857   		subl	$87, %eax
 140:lib_convert.cpp ****         } else if ((str[i] > 64) && (str[i] < 71)) {
 762              		.loc 1 140 17 view .LVU259
 763 0345 0FAFC2   		imull	%edx, %eax
 764 0348 01C1     		addl	%eax, %ecx
 765              	.LVL104:
 766              	.L69:
 145:lib_convert.cpp ****     }
 767              		.loc 1 145 9 is_stmt 1 discriminator 2 view .LVU260
 145:lib_convert.cpp ****     }
 768              		.loc 1 145 13 is_stmt 0 discriminator 2 view .LVU261
 769 034a C1EA04   		shrl	$4, %edx
 770              	.LVL105:
 134:lib_convert.cpp ****         if ((str[i] > 47) && (str[i] < 58)) {
 771              		.loc 1 134 5 is_stmt 1 discriminator 2 view .LVU262
 772 034d 83C601   		addl	$1, %esi
 773              	.LVL106:
 134:lib_convert.cpp ****         if ((str[i] > 47) && (str[i] < 58)) {
 774              		.loc 1 134 22 discriminator 2 view .LVU263
 775 0350 4138F3   		cmpb	%sil, %r11b
 776 0353 722B     		jb	.L81
 777              	.LVL107:
 778              	.L71:
 135:lib_convert.cpp ****             // 0 - 9
 779              		.loc 1 135 9 view .LVU264
 135:lib_convert.cpp ****             // 0 - 9
 780              		.loc 1 135 18 is_stmt 0 view .LVU265
 781 0355 400FB6C6 		movzbl	%sil, %eax
 135:lib_convert.cpp ****             // 0 - 9
 782              		.loc 1 135 19 view .LVU266
 783 0359 0FB60407 		movzbl	(%rdi,%rax), %eax
 135:lib_convert.cpp ****             // 0 - 9
 784              		.loc 1 135 27 view .LVU267
GAS LISTING /tmp/cceaV4lG.s 			page 28


 785 035d 8D58D0   		leal	-48(%rax), %ebx
 135:lib_convert.cpp ****             // 0 - 9
 786              		.loc 1 135 9 view .LVU268
 787 0360 80FB09   		cmpb	$9, %bl
 788 0363 77D5     		ja	.L68
 137:lib_convert.cpp ****         } else if ((str[i] > 96) && (str[i] < 103)) {
 789              		.loc 1 137 13 is_stmt 1 view .LVU269
 137:lib_convert.cpp ****         } else if ((str[i] > 96) && (str[i] < 103)) {
 790              		.loc 1 137 28 is_stmt 0 view .LVU270
 791 0365 89D8     		movl	%ebx, %eax
 137:lib_convert.cpp ****         } else if ((str[i] > 96) && (str[i] < 103)) {
 792              		.loc 1 137 17 view .LVU271
 793 0367 0FAFC2   		imull	%edx, %eax
 794 036a 01C1     		addl	%eax, %ecx
 795              	.LVL108:
 137:lib_convert.cpp ****         } else if ((str[i] > 96) && (str[i] < 103)) {
 796              		.loc 1 137 17 view .LVU272
 797 036c EBDC     		jmp	.L69
 798              	.L70:
 141:lib_convert.cpp ****             // A - F
 799              		.loc 1 141 16 is_stmt 1 view .LVU273
 141:lib_convert.cpp ****             // A - F
 800              		.loc 1 141 34 is_stmt 0 view .LVU274
 801 036e 8D58BF   		leal	-65(%rax), %ebx
 141:lib_convert.cpp ****             // A - F
 802              		.loc 1 141 16 view .LVU275
 803 0371 80FB05   		cmpb	$5, %bl
 804 0374 77D4     		ja	.L69
 143:lib_convert.cpp ****         }
 805              		.loc 1 143 13 is_stmt 1 view .LVU276
 143:lib_convert.cpp ****         }
 806              		.loc 1 143 28 is_stmt 0 view .LVU277
 807 0376 83E837   		subl	$55, %eax
 143:lib_convert.cpp ****         }
 808              		.loc 1 143 17 view .LVU278
 809 0379 0FAFC2   		imull	%edx, %eax
 810 037c 01C1     		addl	%eax, %ecx
 811              	.LVL109:
 143:lib_convert.cpp ****         }
 812              		.loc 1 143 17 view .LVU279
 813 037e EBCA     		jmp	.L69
 814              	.L81:
 148:lib_convert.cpp ****         *out = val;
 815              		.loc 1 148 5 is_stmt 1 view .LVU280
 152:lib_convert.cpp ****     }
 816              		.loc 1 152 16 is_stmt 0 view .LVU281
 817 0380 B8010000 		movl	$1, %eax
 817      00
 148:lib_convert.cpp ****         *out = val;
 818              		.loc 1 148 5 view .LVU282
 819 0385 4438C1   		cmpb	%r8b, %cl
 820 0388 720C     		jb	.L64
 148:lib_convert.cpp ****         *out = val;
 821              		.loc 1 148 26 discriminator 1 view .LVU283
 822 038a 0FB6D1   		movzbl	%cl, %edx
 823              	.LVL110:
 148:lib_convert.cpp ****         *out = val;
GAS LISTING /tmp/cceaV4lG.s 			page 29


 824              		.loc 1 148 33 discriminator 1 view .LVU284
 825 038d 450FB7C9 		movzwl	%r9w, %r9d
 148:lib_convert.cpp ****         *out = val;
 826              		.loc 1 148 22 discriminator 1 view .LVU285
 827 0391 4439CA   		cmpl	%r9d, %edx
 828 0394 7E0A     		jle	.L73
 829              	.LVL111:
 830              	.L64:
 154:lib_convert.cpp **** 
 831              		.loc 1 154 1 view .LVU286
 832 0396 5B       		popq	%rbx
 833              		.cfi_remember_state
 834              		.cfi_def_cfa_offset 8
 835 0397 C3       		ret
 836              	.LVL112:
 837              	.L67:
 838              		.cfi_restore_state
 148:lib_convert.cpp ****         *out = val;
 839              		.loc 1 148 5 is_stmt 1 view .LVU287
 125:lib_convert.cpp ****     uint32_t pow = 1;
 840              		.loc 1 125 13 is_stmt 0 view .LVU288
 841 0398 4489C1   		movl	%r8d, %ecx
 842              	.LVL113:
 148:lib_convert.cpp ****         *out = val;
 843              		.loc 1 148 5 view .LVU289
 844 039b 4584C0   		testb	%r8b, %r8b
 845 039e 750A     		jne	.L82
 846              	.LVL114:
 847              	.L73:
 149:lib_convert.cpp ****         return EXIT_SUCCESS;
 848              		.loc 1 149 9 is_stmt 1 view .LVU290
 149:lib_convert.cpp ****         return EXIT_SUCCESS;
 849              		.loc 1 149 14 is_stmt 0 view .LVU291
 850 03a0 41880A   		movb	%cl, (%r10)
 150:lib_convert.cpp ****     } else {
 851              		.loc 1 150 9 is_stmt 1 view .LVU292
 150:lib_convert.cpp ****     } else {
 852              		.loc 1 150 16 is_stmt 0 view .LVU293
 853 03a3 B8000000 		movl	$0, %eax
 853      00
 854 03a8 EBEC     		jmp	.L64
 855              	.LVL115:
 856              	.L82:
 152:lib_convert.cpp ****     }
 857              		.loc 1 152 16 view .LVU294
 858 03aa B8010000 		movl	$1, %eax
 858      00
 859 03af EBE5     		jmp	.L64
 860              		.cfi_endproc
 861              	.LFE58:
 862              		.size	hstr_to_uint8, .-hstr_to_uint8
 863              		.globl	hstr_to_uint16
 864              		.type	hstr_to_uint16, @function
 865              	hstr_to_uint16:
 866              	.LVL116:
 867              	.LFB59:
 158:lib_convert.cpp ****     uint16_t val = 0;
GAS LISTING /tmp/cceaV4lG.s 			page 30


 868              		.loc 1 158 1 is_stmt 1 view -0
 869              		.cfi_startproc
 158:lib_convert.cpp ****     uint16_t val = 0;
 870              		.loc 1 158 1 is_stmt 0 view .LVU296
 871 03b1 53       		pushq	%rbx
 872              		.cfi_def_cfa_offset 16
 873              		.cfi_offset 3, -16
 874 03b2 4989F2   		movq	%rsi, %r10
 875 03b5 89D3     		movl	%edx, %ebx
 876 03b7 89D6     		movl	%edx, %esi
 877              	.LVL117:
 158:lib_convert.cpp ****     uint16_t val = 0;
 878              		.loc 1 158 1 view .LVU297
 879 03b9 4189CB   		movl	%ecx, %r11d
 159:lib_convert.cpp ****     uint32_t pow = 1;
 880              		.loc 1 159 5 is_stmt 1 view .LVU298
 881              	.LVL118:
 160:lib_convert.cpp ****     uint8_t i;
 882              		.loc 1 160 5 view .LVU299
 161:lib_convert.cpp **** 
 883              		.loc 1 161 5 view .LVU300
 164:lib_convert.cpp ****         pow *= 16;
 884              		.loc 1 164 5 view .LVU301
 164:lib_convert.cpp ****         pow *= 16;
 885              		.loc 1 164 22 view .LVU302
 886 03bc 38CA     		cmpb	%cl, %dl
 887 03be 731D     		jnb	.L92
 164:lib_convert.cpp ****         pow *= 16;
 888              		.loc 1 164 12 is_stmt 0 view .LVU303
 889 03c0 89D0     		movl	%edx, %eax
 160:lib_convert.cpp ****     uint8_t i;
 890              		.loc 1 160 14 view .LVU304
 891 03c2 BA010000 		movl	$1, %edx
 891      00
 892              	.LVL119:
 893              	.L85:
 165:lib_convert.cpp ****     }
 894              		.loc 1 165 9 is_stmt 1 discriminator 3 view .LVU305
 165:lib_convert.cpp ****     }
 895              		.loc 1 165 13 is_stmt 0 discriminator 3 view .LVU306
 896 03c7 C1E204   		sall	$4, %edx
 897              	.LVL120:
 164:lib_convert.cpp ****         pow *= 16;
 898              		.loc 1 164 5 is_stmt 1 discriminator 3 view .LVU307
 899 03ca 83C001   		addl	$1, %eax
 900              	.LVL121:
 164:lib_convert.cpp ****         pow *= 16;
 901              		.loc 1 164 22 discriminator 3 view .LVU308
 902 03cd 4138C3   		cmpb	%al, %r11b
 903 03d0 75F5     		jne	.L85
 904              	.LVL122:
 905              	.L84:
 168:lib_convert.cpp ****         if ((str[i] > 47) && (str[i] < 58)) {
 906              		.loc 1 168 22 view .LVU309
 907 03d2 38D9     		cmpb	%bl, %cl
 908 03d4 725E     		jb	.L93
 159:lib_convert.cpp ****     uint32_t pow = 1;
GAS LISTING /tmp/cceaV4lG.s 			page 31


 909              		.loc 1 159 14 is_stmt 0 view .LVU310
 910 03d6 B9000000 		movl	$0, %ecx
 910      00
 911              	.LVL123:
 159:lib_convert.cpp ****     uint32_t pow = 1;
 912              		.loc 1 159 14 view .LVU311
 913 03db EB25     		jmp	.L90
 914              	.LVL124:
 915              	.L92:
 160:lib_convert.cpp ****     uint8_t i;
 916              		.loc 1 160 14 view .LVU312
 917 03dd BA010000 		movl	$1, %edx
 917      00
 918              	.LVL125:
 160:lib_convert.cpp ****     uint8_t i;
 919              		.loc 1 160 14 view .LVU313
 920 03e2 EBEE     		jmp	.L84
 921              	.LVL126:
 922              	.L87:
 172:lib_convert.cpp ****             // a - f
 923              		.loc 1 172 16 is_stmt 1 view .LVU314
 172:lib_convert.cpp ****             // a - f
 924              		.loc 1 172 34 is_stmt 0 view .LVU315
 925 03e4 8D589F   		leal	-97(%rax), %ebx
 172:lib_convert.cpp ****             // a - f
 926              		.loc 1 172 16 view .LVU316
 927 03e7 80FB05   		cmpb	$5, %bl
 928 03ea 7733     		ja	.L89
 174:lib_convert.cpp ****         } else if ((str[i] > 64) && (str[i] < 71)) {
 929              		.loc 1 174 13 is_stmt 1 view .LVU317
 174:lib_convert.cpp ****         } else if ((str[i] > 64) && (str[i] < 71)) {
 930              		.loc 1 174 26 is_stmt 0 view .LVU318
 931 03ec 0FBEC0   		movsbl	%al, %eax
 174:lib_convert.cpp ****         } else if ((str[i] > 64) && (str[i] < 71)) {
 932              		.loc 1 174 28 view .LVU319
 933 03ef 83E857   		subl	$87, %eax
 174:lib_convert.cpp ****         } else if ((str[i] > 64) && (str[i] < 71)) {
 934              		.loc 1 174 17 view .LVU320
 935 03f2 0FAFC2   		imull	%edx, %eax
 936 03f5 01C1     		addl	%eax, %ecx
 937              	.LVL127:
 938              	.L88:
 179:lib_convert.cpp ****     }
 939              		.loc 1 179 9 is_stmt 1 discriminator 2 view .LVU321
 179:lib_convert.cpp ****     }
 940              		.loc 1 179 13 is_stmt 0 discriminator 2 view .LVU322
 941 03f7 C1EA04   		shrl	$4, %edx
 942              	.LVL128:
 168:lib_convert.cpp ****         if ((str[i] > 47) && (str[i] < 58)) {
 943              		.loc 1 168 5 is_stmt 1 discriminator 2 view .LVU323
 944 03fa 83C601   		addl	$1, %esi
 945              	.LVL129:
 168:lib_convert.cpp ****         if ((str[i] > 47) && (str[i] < 58)) {
 946              		.loc 1 168 22 discriminator 2 view .LVU324
 947 03fd 4138F3   		cmpb	%sil, %r11b
 948 0400 7237     		jb	.L86
 949              	.LVL130:
GAS LISTING /tmp/cceaV4lG.s 			page 32


 950              	.L90:
 169:lib_convert.cpp ****             // 0 - 9
 951              		.loc 1 169 9 view .LVU325
 169:lib_convert.cpp ****             // 0 - 9
 952              		.loc 1 169 18 is_stmt 0 view .LVU326
 953 0402 400FB6C6 		movzbl	%sil, %eax
 169:lib_convert.cpp ****             // 0 - 9
 954              		.loc 1 169 19 view .LVU327
 955 0406 0FB60407 		movzbl	(%rdi,%rax), %eax
 169:lib_convert.cpp ****             // 0 - 9
 956              		.loc 1 169 27 view .LVU328
 957 040a 8D58D0   		leal	-48(%rax), %ebx
 169:lib_convert.cpp ****             // 0 - 9
 958              		.loc 1 169 9 view .LVU329
 959 040d 80FB09   		cmpb	$9, %bl
 960 0410 77D2     		ja	.L87
 171:lib_convert.cpp ****         } else if ((str[i] > 96) && (str[i] < 103)) {
 961              		.loc 1 171 13 is_stmt 1 view .LVU330
 171:lib_convert.cpp ****         } else if ((str[i] > 96) && (str[i] < 103)) {
 962              		.loc 1 171 26 is_stmt 0 view .LVU331
 963 0412 0FBEC0   		movsbl	%al, %eax
 171:lib_convert.cpp ****         } else if ((str[i] > 96) && (str[i] < 103)) {
 964              		.loc 1 171 28 view .LVU332
 965 0415 83E830   		subl	$48, %eax
 171:lib_convert.cpp ****         } else if ((str[i] > 96) && (str[i] < 103)) {
 966              		.loc 1 171 17 view .LVU333
 967 0418 0FAFC2   		imull	%edx, %eax
 968 041b 01C1     		addl	%eax, %ecx
 969              	.LVL131:
 171:lib_convert.cpp ****         } else if ((str[i] > 96) && (str[i] < 103)) {
 970              		.loc 1 171 17 view .LVU334
 971 041d EBD8     		jmp	.L88
 972              	.L89:
 175:lib_convert.cpp ****             // A - F
 973              		.loc 1 175 16 is_stmt 1 view .LVU335
 175:lib_convert.cpp ****             // A - F
 974              		.loc 1 175 34 is_stmt 0 view .LVU336
 975 041f 8D58BF   		leal	-65(%rax), %ebx
 175:lib_convert.cpp ****             // A - F
 976              		.loc 1 175 16 view .LVU337
 977 0422 80FB05   		cmpb	$5, %bl
 978 0425 77D0     		ja	.L88
 177:lib_convert.cpp ****         }
 979              		.loc 1 177 13 is_stmt 1 view .LVU338
 177:lib_convert.cpp ****         }
 980              		.loc 1 177 26 is_stmt 0 view .LVU339
 981 0427 0FBEC0   		movsbl	%al, %eax
 177:lib_convert.cpp ****         }
 982              		.loc 1 177 28 view .LVU340
 983 042a 83E837   		subl	$55, %eax
 177:lib_convert.cpp ****         }
 984              		.loc 1 177 17 view .LVU341
 985 042d 0FAFC2   		imull	%edx, %eax
 986 0430 01C1     		addl	%eax, %ecx
 987              	.LVL132:
 177:lib_convert.cpp ****         }
 988              		.loc 1 177 17 view .LVU342
GAS LISTING /tmp/cceaV4lG.s 			page 33


 989 0432 EBC3     		jmp	.L88
 990              	.LVL133:
 991              	.L93:
 159:lib_convert.cpp ****     uint32_t pow = 1;
 992              		.loc 1 159 14 view .LVU343
 993 0434 B9000000 		movl	$0, %ecx
 993      00
 994              	.LVL134:
 995              	.L86:
 182:lib_convert.cpp ****         *out = val;
 996              		.loc 1 182 5 is_stmt 1 view .LVU344
 997 0439 664439C1 		cmpw	%r8w, %cx
 998 043d 7211     		jb	.L94
 999 043f 664439C9 		cmpw	%r9w, %cx
 1000 0443 770B     		ja	.L94
 183:lib_convert.cpp ****         return EXIT_SUCCESS;
 1001              		.loc 1 183 9 view .LVU345
 183:lib_convert.cpp ****         return EXIT_SUCCESS;
 1002              		.loc 1 183 14 is_stmt 0 view .LVU346
 1003 0445 6641890A 		movw	%cx, (%r10)
 184:lib_convert.cpp ****     } else {
 1004              		.loc 1 184 9 is_stmt 1 view .LVU347
 184:lib_convert.cpp ****     } else {
 1005              		.loc 1 184 16 is_stmt 0 view .LVU348
 1006 0449 B8000000 		movl	$0, %eax
 1006      00
 1007              	.L83:
 188:lib_convert.cpp **** 
 1008              		.loc 1 188 1 view .LVU349
 1009 044e 5B       		popq	%rbx
 1010              		.cfi_remember_state
 1011              		.cfi_def_cfa_offset 8
 1012 044f C3       		ret
 1013              	.L94:
 1014              		.cfi_restore_state
 186:lib_convert.cpp ****     }
 1015              		.loc 1 186 16 view .LVU350
 1016 0450 B8010000 		movl	$1, %eax
 1016      00
 1017 0455 EBF7     		jmp	.L83
 1018              		.cfi_endproc
 1019              	.LFE59:
 1020              		.size	hstr_to_uint16, .-hstr_to_uint16
 1021              		.globl	hstr_to_uint32
 1022              		.type	hstr_to_uint32, @function
 1023              	hstr_to_uint32:
 1024              	.LVL135:
 1025              	.LFB60:
 192:lib_convert.cpp ****     uint32_t val = 0;
 1026              		.loc 1 192 1 is_stmt 1 view -0
 1027              		.cfi_startproc
 192:lib_convert.cpp ****     uint32_t val = 0;
 1028              		.loc 1 192 1 is_stmt 0 view .LVU352
 1029 0457 53       		pushq	%rbx
 1030              		.cfi_def_cfa_offset 16
 1031              		.cfi_offset 3, -16
 1032 0458 4989F2   		movq	%rsi, %r10
GAS LISTING /tmp/cceaV4lG.s 			page 34


 1033 045b 89D3     		movl	%edx, %ebx
 1034 045d 89D6     		movl	%edx, %esi
 1035              	.LVL136:
 192:lib_convert.cpp ****     uint32_t val = 0;
 1036              		.loc 1 192 1 view .LVU353
 1037 045f 4189CB   		movl	%ecx, %r11d
 193:lib_convert.cpp ****     uint32_t pow = 1;
 1038              		.loc 1 193 5 is_stmt 1 view .LVU354
 1039              	.LVL137:
 194:lib_convert.cpp ****     uint8_t i;
 1040              		.loc 1 194 5 view .LVU355
 195:lib_convert.cpp **** 
 1041              		.loc 1 195 5 view .LVU356
 198:lib_convert.cpp ****         pow *= 16;
 1042              		.loc 1 198 5 view .LVU357
 198:lib_convert.cpp ****         pow *= 16;
 1043              		.loc 1 198 22 view .LVU358
 1044 0462 38CA     		cmpb	%cl, %dl
 1045 0464 731D     		jnb	.L107
 198:lib_convert.cpp ****         pow *= 16;
 1046              		.loc 1 198 12 is_stmt 0 view .LVU359
 1047 0466 89D0     		movl	%edx, %eax
 194:lib_convert.cpp ****     uint8_t i;
 1048              		.loc 1 194 14 view .LVU360
 1049 0468 BA010000 		movl	$1, %edx
 1049      00
 1050              	.LVL138:
 1051              	.L100:
 199:lib_convert.cpp ****     }
 1052              		.loc 1 199 9 is_stmt 1 discriminator 3 view .LVU361
 199:lib_convert.cpp ****     }
 1053              		.loc 1 199 13 is_stmt 0 discriminator 3 view .LVU362
 1054 046d C1E204   		sall	$4, %edx
 1055              	.LVL139:
 198:lib_convert.cpp ****         pow *= 16;
 1056              		.loc 1 198 5 is_stmt 1 discriminator 3 view .LVU363
 1057 0470 83C001   		addl	$1, %eax
 1058              	.LVL140:
 198:lib_convert.cpp ****         pow *= 16;
 1059              		.loc 1 198 22 discriminator 3 view .LVU364
 1060 0473 4138C3   		cmpb	%al, %r11b
 1061 0476 75F5     		jne	.L100
 1062              	.LVL141:
 1063              	.L99:
 202:lib_convert.cpp ****         if ((str[i] > 47) && (str[i] < 58)) {
 1064              		.loc 1 202 22 view .LVU365
 1065 0478 38D9     		cmpb	%bl, %cl
 1066 047a 725E     		jb	.L108
 193:lib_convert.cpp ****     uint32_t pow = 1;
 1067              		.loc 1 193 14 is_stmt 0 view .LVU366
 1068 047c B9000000 		movl	$0, %ecx
 1068      00
 1069              	.LVL142:
 193:lib_convert.cpp ****     uint32_t pow = 1;
 1070              		.loc 1 193 14 view .LVU367
 1071 0481 EB25     		jmp	.L105
 1072              	.LVL143:
GAS LISTING /tmp/cceaV4lG.s 			page 35


 1073              	.L107:
 194:lib_convert.cpp ****     uint8_t i;
 1074              		.loc 1 194 14 view .LVU368
 1075 0483 BA010000 		movl	$1, %edx
 1075      00
 1076              	.LVL144:
 194:lib_convert.cpp ****     uint8_t i;
 1077              		.loc 1 194 14 view .LVU369
 1078 0488 EBEE     		jmp	.L99
 1079              	.LVL145:
 1080              	.L102:
 206:lib_convert.cpp ****             // a - f
 1081              		.loc 1 206 16 is_stmt 1 view .LVU370
 206:lib_convert.cpp ****             // a - f
 1082              		.loc 1 206 34 is_stmt 0 view .LVU371
 1083 048a 8D589F   		leal	-97(%rax), %ebx
 206:lib_convert.cpp ****             // a - f
 1084              		.loc 1 206 16 view .LVU372
 1085 048d 80FB05   		cmpb	$5, %bl
 1086 0490 7733     		ja	.L104
 208:lib_convert.cpp ****         } else if ((str[i] > 64) && (str[i] < 71)) {
 1087              		.loc 1 208 13 is_stmt 1 view .LVU373
 208:lib_convert.cpp ****         } else if ((str[i] > 64) && (str[i] < 71)) {
 1088              		.loc 1 208 26 is_stmt 0 view .LVU374
 1089 0492 0FBEC0   		movsbl	%al, %eax
 208:lib_convert.cpp ****         } else if ((str[i] > 64) && (str[i] < 71)) {
 1090              		.loc 1 208 28 view .LVU375
 1091 0495 83E857   		subl	$87, %eax
 208:lib_convert.cpp ****         } else if ((str[i] > 64) && (str[i] < 71)) {
 1092              		.loc 1 208 34 view .LVU376
 1093 0498 0FAFC2   		imull	%edx, %eax
 208:lib_convert.cpp ****         } else if ((str[i] > 64) && (str[i] < 71)) {
 1094              		.loc 1 208 17 view .LVU377
 1095 049b 01C1     		addl	%eax, %ecx
 1096              	.LVL146:
 1097              	.L103:
 213:lib_convert.cpp ****     }
 1098              		.loc 1 213 9 is_stmt 1 discriminator 2 view .LVU378
 213:lib_convert.cpp ****     }
 1099              		.loc 1 213 13 is_stmt 0 discriminator 2 view .LVU379
 1100 049d C1EA04   		shrl	$4, %edx
 1101              	.LVL147:
 202:lib_convert.cpp ****         if ((str[i] > 47) && (str[i] < 58)) {
 1102              		.loc 1 202 5 is_stmt 1 discriminator 2 view .LVU380
 1103 04a0 83C601   		addl	$1, %esi
 1104              	.LVL148:
 202:lib_convert.cpp ****         if ((str[i] > 47) && (str[i] < 58)) {
 1105              		.loc 1 202 22 discriminator 2 view .LVU381
 1106 04a3 4138F3   		cmpb	%sil, %r11b
 1107 04a6 7237     		jb	.L101
 1108              	.LVL149:
 1109              	.L105:
 203:lib_convert.cpp ****             // 0 - 9
 1110              		.loc 1 203 9 view .LVU382
 203:lib_convert.cpp ****             // 0 - 9
 1111              		.loc 1 203 18 is_stmt 0 view .LVU383
 1112 04a8 400FB6C6 		movzbl	%sil, %eax
GAS LISTING /tmp/cceaV4lG.s 			page 36


 203:lib_convert.cpp ****             // 0 - 9
 1113              		.loc 1 203 19 view .LVU384
 1114 04ac 0FB60407 		movzbl	(%rdi,%rax), %eax
 203:lib_convert.cpp ****             // 0 - 9
 1115              		.loc 1 203 27 view .LVU385
 1116 04b0 8D58D0   		leal	-48(%rax), %ebx
 203:lib_convert.cpp ****             // 0 - 9
 1117              		.loc 1 203 9 view .LVU386
 1118 04b3 80FB09   		cmpb	$9, %bl
 1119 04b6 77D2     		ja	.L102
 205:lib_convert.cpp ****         } else if ((str[i] > 96) && (str[i] < 103)) {
 1120              		.loc 1 205 13 is_stmt 1 view .LVU387
 205:lib_convert.cpp ****         } else if ((str[i] > 96) && (str[i] < 103)) {
 1121              		.loc 1 205 26 is_stmt 0 view .LVU388
 1122 04b8 0FBEC0   		movsbl	%al, %eax
 205:lib_convert.cpp ****         } else if ((str[i] > 96) && (str[i] < 103)) {
 1123              		.loc 1 205 28 view .LVU389
 1124 04bb 83E830   		subl	$48, %eax
 205:lib_convert.cpp ****         } else if ((str[i] > 96) && (str[i] < 103)) {
 1125              		.loc 1 205 34 view .LVU390
 1126 04be 0FAFC2   		imull	%edx, %eax
 205:lib_convert.cpp ****         } else if ((str[i] > 96) && (str[i] < 103)) {
 1127              		.loc 1 205 17 view .LVU391
 1128 04c1 01C1     		addl	%eax, %ecx
 1129              	.LVL150:
 205:lib_convert.cpp ****         } else if ((str[i] > 96) && (str[i] < 103)) {
 1130              		.loc 1 205 17 view .LVU392
 1131 04c3 EBD8     		jmp	.L103
 1132              	.L104:
 209:lib_convert.cpp ****             // A - F
 1133              		.loc 1 209 16 is_stmt 1 view .LVU393
 209:lib_convert.cpp ****             // A - F
 1134              		.loc 1 209 34 is_stmt 0 view .LVU394
 1135 04c5 8D58BF   		leal	-65(%rax), %ebx
 209:lib_convert.cpp ****             // A - F
 1136              		.loc 1 209 16 view .LVU395
 1137 04c8 80FB05   		cmpb	$5, %bl
 1138 04cb 77D0     		ja	.L103
 211:lib_convert.cpp ****         }
 1139              		.loc 1 211 13 is_stmt 1 view .LVU396
 211:lib_convert.cpp ****         }
 1140              		.loc 1 211 26 is_stmt 0 view .LVU397
 1141 04cd 0FBEC0   		movsbl	%al, %eax
 211:lib_convert.cpp ****         }
 1142              		.loc 1 211 28 view .LVU398
 1143 04d0 83E837   		subl	$55, %eax
 211:lib_convert.cpp ****         }
 1144              		.loc 1 211 34 view .LVU399
 1145 04d3 0FAFC2   		imull	%edx, %eax
 211:lib_convert.cpp ****         }
 1146              		.loc 1 211 17 view .LVU400
 1147 04d6 01C1     		addl	%eax, %ecx
 1148              	.LVL151:
 211:lib_convert.cpp ****         }
 1149              		.loc 1 211 17 view .LVU401
 1150 04d8 EBC3     		jmp	.L103
 1151              	.LVL152:
GAS LISTING /tmp/cceaV4lG.s 			page 37


 1152              	.L108:
 193:lib_convert.cpp ****     uint32_t pow = 1;
 1153              		.loc 1 193 14 view .LVU402
 1154 04da B9000000 		movl	$0, %ecx
 1154      00
 1155              	.LVL153:
 1156              	.L101:
 216:lib_convert.cpp ****         *out = val;
 1157              		.loc 1 216 5 is_stmt 1 view .LVU403
 1158 04df 4439C1   		cmpl	%r8d, %ecx
 1159 04e2 720F     		jb	.L109
 1160 04e4 4139C9   		cmpl	%ecx, %r9d
 1161 04e7 720A     		jb	.L109
 217:lib_convert.cpp ****         return EXIT_SUCCESS;
 1162              		.loc 1 217 9 view .LVU404
 217:lib_convert.cpp ****         return EXIT_SUCCESS;
 1163              		.loc 1 217 14 is_stmt 0 view .LVU405
 1164 04e9 41890A   		movl	%ecx, (%r10)
 218:lib_convert.cpp ****     } else {
 1165              		.loc 1 218 9 is_stmt 1 view .LVU406
 218:lib_convert.cpp ****     } else {
 1166              		.loc 1 218 16 is_stmt 0 view .LVU407
 1167 04ec B8000000 		movl	$0, %eax
 1167      00
 1168              	.L98:
 222:lib_convert.cpp **** 
 1169              		.loc 1 222 1 view .LVU408
 1170 04f1 5B       		popq	%rbx
 1171              		.cfi_remember_state
 1172              		.cfi_def_cfa_offset 8
 1173 04f2 C3       		ret
 1174              	.L109:
 1175              		.cfi_restore_state
 220:lib_convert.cpp ****     }
 1176              		.loc 1 220 16 view .LVU409
 1177 04f3 B8010000 		movl	$1, %eax
 1177      00
 1178 04f8 EBF7     		jmp	.L98
 1179              		.cfi_endproc
 1180              	.LFE60:
 1181              		.size	hstr_to_uint32, .-hstr_to_uint32
 1182              		.globl	_utoh
 1183              		.type	_utoh, @function
 1184              	_utoh:
 1185              	.LVL154:
 1186              	.LFB61:
 230:lib_convert.cpp ****     char *p = buf + (CONV_BASE_16_BUF_SZ - 1);   // the very end of the buffer
 1187              		.loc 1 230 1 is_stmt 1 view -0
 1188              		.cfi_startproc
 231:lib_convert.cpp ****     uint32_t m = val;
 1189              		.loc 1 231 5 view .LVU411
 232:lib_convert.cpp ****     uint8_t i = 0;
 1190              		.loc 1 232 5 view .LVU412
 233:lib_convert.cpp **** 
 1191              		.loc 1 233 5 view .LVU413
 235:lib_convert.cpp **** 
 1192              		.loc 1 235 5 view .LVU414
GAS LISTING /tmp/cceaV4lG.s 			page 38


 235:lib_convert.cpp **** 
 1193              		.loc 1 235 8 is_stmt 0 view .LVU415
 1194 04fa C6470B00 		movb	$0, 11(%rdi)
 237:lib_convert.cpp ****         p -= 1;
 1195              		.loc 1 237 5 is_stmt 1 view .LVU416
 231:lib_convert.cpp ****     uint32_t m = val;
 1196              		.loc 1 231 11 is_stmt 0 view .LVU417
 1197 04fe 4C8D470B 		leaq	11(%rdi), %r8
 1198              	.LVL155:
 237:lib_convert.cpp ****         p -= 1;
 1199              		.loc 1 237 5 view .LVU418
 1200 0502 85F6     		testl	%esi, %esi
 1201 0504 740C     		je	.L118
 1202              	.L115:
 230:lib_convert.cpp ****     char *p = buf + (CONV_BASE_16_BUF_SZ - 1);   // the very end of the buffer
 1203              		.loc 1 230 1 view .LVU419
 1204 0506 4C89C0   		movq	%r8, %rax
 1205              	.LBB34:
 1206              	.LBB35:
 1207              		.file 2 "/usr/include/bits/string_fortified.h"
   1:/usr/include/bits/string_fortified.h **** /* Copyright (C) 2004-2022 Free Software Foundation, Inc.
   2:/usr/include/bits/string_fortified.h ****    This file is part of the GNU C Library.
   3:/usr/include/bits/string_fortified.h **** 
   4:/usr/include/bits/string_fortified.h ****    The GNU C Library is free software; you can redistribute it and/or
   5:/usr/include/bits/string_fortified.h ****    modify it under the terms of the GNU Lesser General Public
   6:/usr/include/bits/string_fortified.h ****    License as published by the Free Software Foundation; either
   7:/usr/include/bits/string_fortified.h ****    version 2.1 of the License, or (at your option) any later version.
   8:/usr/include/bits/string_fortified.h **** 
   9:/usr/include/bits/string_fortified.h ****    The GNU C Library is distributed in the hope that it will be useful,
  10:/usr/include/bits/string_fortified.h ****    but WITHOUT ANY WARRANTY; without even the implied warranty of
  11:/usr/include/bits/string_fortified.h ****    MERCHANTABILITY or FITNESS FOR A PARTICULAR PURPOSE.  See the GNU
  12:/usr/include/bits/string_fortified.h ****    Lesser General Public License for more details.
  13:/usr/include/bits/string_fortified.h **** 
  14:/usr/include/bits/string_fortified.h ****    You should have received a copy of the GNU Lesser General Public
  15:/usr/include/bits/string_fortified.h ****    License along with the GNU C Library; if not, see
  16:/usr/include/bits/string_fortified.h ****    <https://www.gnu.org/licenses/>.  */
  17:/usr/include/bits/string_fortified.h **** 
  18:/usr/include/bits/string_fortified.h **** #ifndef _BITS_STRING_FORTIFIED_H
  19:/usr/include/bits/string_fortified.h **** #define _BITS_STRING_FORTIFIED_H 1
  20:/usr/include/bits/string_fortified.h **** 
  21:/usr/include/bits/string_fortified.h **** #ifndef _STRING_H
  22:/usr/include/bits/string_fortified.h **** # error "Never use <bits/string_fortified.h> directly; include <string.h> instead."
  23:/usr/include/bits/string_fortified.h **** #endif
  24:/usr/include/bits/string_fortified.h **** 
  25:/usr/include/bits/string_fortified.h **** __fortify_function void *
  26:/usr/include/bits/string_fortified.h **** __NTH (memcpy (void *__restrict __dest, const void *__restrict __src,
  27:/usr/include/bits/string_fortified.h **** 	       size_t __len))
  28:/usr/include/bits/string_fortified.h **** {
  29:/usr/include/bits/string_fortified.h ****   return __builtin___memcpy_chk (__dest, __src, __len,
 1208              		.loc 2 29 33 view .LVU420
 1209 0509 488D0D00 		leaq	_ZL9hex_ascii(%rip), %rcx
 1209      000000
 1210 0510 EB1C     		jmp	.L116
 1211              	.L118:
 1212              		.loc 2 29 33 view .LVU421
 1213              	.LBE35:
 1214              	.LBE34:
GAS LISTING /tmp/cceaV4lG.s 			page 39


 238:lib_convert.cpp ****         memcpy(p, &hex_ascii[0], sizeof(uint8_t));
 1215              		.loc 1 238 9 is_stmt 1 view .LVU422
 238:lib_convert.cpp ****         memcpy(p, &hex_ascii[0], sizeof(uint8_t));
 1216              		.loc 1 238 11 is_stmt 0 view .LVU423
 1217 0512 4C8D470A 		leaq	10(%rdi), %r8
 1218              	.LVL156:
 239:lib_convert.cpp ****     }
 1219              		.loc 1 239 9 is_stmt 1 view .LVU424
 1220              	.LBB38:
 1221              	.LBI38:
  26:/usr/include/bits/string_fortified.h **** 	       size_t __len))
 1222              		.loc 2 26 1 view .LVU425
 1223              	.LBB39:
 1224              		.loc 2 29 3 view .LVU426
 1225              		.loc 2 29 33 is_stmt 0 view .LVU427
 1226 0516 C6470A30 		movb	$48, 10(%rdi)
  30:/usr/include/bits/string_fortified.h **** 				 __glibc_objsize0 (__dest));
 1227              		.loc 2 30 31 view .LVU428
 1228 051a EBEA     		jmp	.L115
 1229              	.LVL157:
 1230              	.L117:
 1231              		.loc 2 30 31 view .LVU429
 1232              	.LBE39:
 1233              	.LBE38:
 243:lib_convert.cpp ****         memcpy(p, &hex_ascii[m & 0xf], sizeof(uint8_t));
 1234              		.loc 1 243 9 is_stmt 1 view .LVU430
 243:lib_convert.cpp ****         memcpy(p, &hex_ascii[m & 0xf], sizeof(uint8_t));
 1235              		.loc 1 243 11 is_stmt 0 view .LVU431
 1236 051c 4883E801 		subq	$1, %rax
 1237              	.LVL158:
 244:lib_convert.cpp ****         m >>= 4;
 1238              		.loc 1 244 9 is_stmt 1 view .LVU432
 1239              	.LBB40:
 1240              	.LBI34:
  26:/usr/include/bits/string_fortified.h **** 	       size_t __len))
 1241              		.loc 2 26 1 view .LVU433
 1242              	.LBB36:
  29:/usr/include/bits/string_fortified.h **** 				 __glibc_objsize0 (__dest));
 1243              		.loc 2 29 3 view .LVU434
 1244              	.LBE36:
 1245              	.LBE40:
 244:lib_convert.cpp ****         m >>= 4;
 1246              		.loc 1 244 19 is_stmt 0 view .LVU435
 1247 0520 89F2     		movl	%esi, %edx
 1248 0522 83E20F   		andl	$15, %edx
 1249              	.LBB41:
 1250              	.LBB37:
  29:/usr/include/bits/string_fortified.h **** 				 __glibc_objsize0 (__dest));
 1251              		.loc 2 29 33 view .LVU436
 1252 0525 0FB61451 		movzbl	(%rcx,%rdx,2), %edx
 1253 0529 8810     		movb	%dl, (%rax)
 1254              	.LVL159:
  29:/usr/include/bits/string_fortified.h **** 				 __glibc_objsize0 (__dest));
 1255              		.loc 2 29 33 view .LVU437
 1256              	.LBE37:
 1257              	.LBE41:
 245:lib_convert.cpp ****         i++;
GAS LISTING /tmp/cceaV4lG.s 			page 40


 1258              		.loc 1 245 9 is_stmt 1 view .LVU438
 245:lib_convert.cpp ****         i++;
 1259              		.loc 1 245 11 is_stmt 0 view .LVU439
 1260 052b C1EE04   		shrl	$4, %esi
 1261              	.LVL160:
 246:lib_convert.cpp ****     }
 1262              		.loc 1 246 9 is_stmt 1 view .LVU440
 1263              	.L116:
 242:lib_convert.cpp ****         p -= 1;
 1264              		.loc 1 242 18 view .LVU441
 1265 052e 85F6     		testl	%esi, %esi
 1266 0530 75EA     		jne	.L117
 1267              	.LVL161:
 242:lib_convert.cpp ****         p -= 1;
 1268              		.loc 1 242 18 is_stmt 0 discriminator 1 view .LVU442
 1269 0532 4489C2   		movl	%r8d, %edx
 1270 0535 29C2     		subl	%eax, %edx
 1271 0537 F6C201   		testb	$1, %dl
 1272 053a 75E0     		jne	.L117
 249:lib_convert.cpp ****     memcpy(p, "0x", sizeof(uint16_t));
 1273              		.loc 1 249 5 is_stmt 1 view .LVU443
 249:lib_convert.cpp ****     memcpy(p, "0x", sizeof(uint16_t));
 1274              		.loc 1 249 7 is_stmt 0 view .LVU444
 1275 053c 488D50FE 		leaq	-2(%rax), %rdx
 1276              	.LVL162:
 250:lib_convert.cpp **** 
 1277              		.loc 1 250 5 is_stmt 1 view .LVU445
 1278              	.LBB42:
 1279              	.LBI42:
  26:/usr/include/bits/string_fortified.h **** 	       size_t __len))
 1280              		.loc 2 26 1 view .LVU446
 1281              	.LBB43:
  29:/usr/include/bits/string_fortified.h **** 				 __glibc_objsize0 (__dest));
 1282              		.loc 2 29 3 view .LVU447
  29:/usr/include/bits/string_fortified.h **** 				 __glibc_objsize0 (__dest));
 1283              		.loc 2 29 33 is_stmt 0 view .LVU448
 1284 0540 66C740FE 		movw	$30768, -2(%rax)
 1284      3078
 1285              	.LVL163:
  29:/usr/include/bits/string_fortified.h **** 				 __glibc_objsize0 (__dest));
 1286              		.loc 2 29 33 view .LVU449
 1287              	.LBE43:
 1288              	.LBE42:
 252:lib_convert.cpp **** }
 1289              		.loc 1 252 5 is_stmt 1 view .LVU450
 253:lib_convert.cpp **** 
 1290              		.loc 1 253 1 is_stmt 0 view .LVU451
 1291 0546 4889D0   		movq	%rdx, %rax
 1292              	.LVL164:
 253:lib_convert.cpp **** 
 1293              		.loc 1 253 1 view .LVU452
 1294 0549 C3       		ret
 1295              		.cfi_endproc
 1296              	.LFE61:
 1297              		.size	_utoh, .-_utoh
 1298              		.globl	_utoh8
 1299              		.type	_utoh8, @function
GAS LISTING /tmp/cceaV4lG.s 			page 41


 1300              	_utoh8:
 1301              	.LVL165:
 1302              	.LFB62:
 256:lib_convert.cpp ****     char *p = buf + (CONV_BASE_16_BUF_SZ - 1);   // the very end of the buffer
 1303              		.loc 1 256 1 is_stmt 1 view -0
 1304              		.cfi_startproc
 257:lib_convert.cpp ****     uint32_t m = val;
 1305              		.loc 1 257 5 view .LVU454
 258:lib_convert.cpp ****     uint8_t i = 0;
 1306              		.loc 1 258 5 view .LVU455
 259:lib_convert.cpp **** 
 1307              		.loc 1 259 5 view .LVU456
 261:lib_convert.cpp **** 
 1308              		.loc 1 261 5 view .LVU457
 261:lib_convert.cpp **** 
 1309              		.loc 1 261 8 is_stmt 0 view .LVU458
 1310 054a C6470B00 		movb	$0, 11(%rdi)
 263:lib_convert.cpp ****         p -= 2;
 1311              		.loc 1 263 5 is_stmt 1 view .LVU459
 257:lib_convert.cpp ****     uint32_t m = val;
 1312              		.loc 1 257 11 is_stmt 0 view .LVU460
 1313 054e 4C8D470B 		leaq	11(%rdi), %r8
 1314              	.LVL166:
 263:lib_convert.cpp ****         p -= 2;
 1315              		.loc 1 263 5 view .LVU461
 1316 0552 85F6     		testl	%esi, %esi
 1317 0554 740C     		je	.L124
 1318              	.L121:
 256:lib_convert.cpp ****     char *p = buf + (CONV_BASE_16_BUF_SZ - 1);   // the very end of the buffer
 1319              		.loc 1 256 1 view .LVU462
 1320 0556 4C89C0   		movq	%r8, %rax
 1321              	.LBB44:
 1322              	.LBB45:
  29:/usr/include/bits/string_fortified.h **** 				 __glibc_objsize0 (__dest));
 1323              		.loc 2 29 33 view .LVU463
 1324 0559 488D0D00 		leaq	_ZL9hex_ascii(%rip), %rcx
 1324      000000
 1325 0560 EB20     		jmp	.L122
 1326              	.L124:
  29:/usr/include/bits/string_fortified.h **** 				 __glibc_objsize0 (__dest));
 1327              		.loc 2 29 33 view .LVU464
 1328              	.LBE45:
 1329              	.LBE44:
 264:lib_convert.cpp ****         memcpy(p, &hex_ascii[0], sizeof(uint8_t));
 1330              		.loc 1 264 9 is_stmt 1 view .LVU465
 264:lib_convert.cpp ****         memcpy(p, &hex_ascii[0], sizeof(uint8_t));
 1331              		.loc 1 264 11 is_stmt 0 view .LVU466
 1332 0562 4C8D4709 		leaq	9(%rdi), %r8
 1333              	.LVL167:
 265:lib_convert.cpp ****         memcpy(p + 1, &hex_ascii[0], sizeof(uint8_t));
 1334              		.loc 1 265 9 is_stmt 1 view .LVU467
 1335              	.LBB48:
 1336              	.LBI48:
  26:/usr/include/bits/string_fortified.h **** 	       size_t __len))
 1337              		.loc 2 26 1 view .LVU468
 1338              	.LBB49:
  29:/usr/include/bits/string_fortified.h **** 				 __glibc_objsize0 (__dest));
GAS LISTING /tmp/cceaV4lG.s 			page 42


 1339              		.loc 2 29 3 view .LVU469
  29:/usr/include/bits/string_fortified.h **** 				 __glibc_objsize0 (__dest));
 1340              		.loc 2 29 33 is_stmt 0 view .LVU470
 1341 0566 C6470930 		movb	$48, 9(%rdi)
 1342              	.LVL168:
  29:/usr/include/bits/string_fortified.h **** 				 __glibc_objsize0 (__dest));
 1343              		.loc 2 29 33 view .LVU471
 1344              	.LBE49:
 1345              	.LBE48:
 266:lib_convert.cpp ****     }
 1346              		.loc 1 266 9 is_stmt 1 view .LVU472
 1347              	.LBB50:
 1348              	.LBI50:
  26:/usr/include/bits/string_fortified.h **** 	       size_t __len))
 1349              		.loc 2 26 1 view .LVU473
 1350              	.LBB51:
  29:/usr/include/bits/string_fortified.h **** 				 __glibc_objsize0 (__dest));
 1351              		.loc 2 29 3 view .LVU474
  29:/usr/include/bits/string_fortified.h **** 				 __glibc_objsize0 (__dest));
 1352              		.loc 2 29 33 is_stmt 0 view .LVU475
 1353 056a C6470A30 		movb	$48, 10(%rdi)
 1354              		.loc 2 30 31 view .LVU476
 1355 056e EBE6     		jmp	.L121
 1356              	.LVL169:
 1357              	.L123:
 1358              		.loc 2 30 31 view .LVU477
 1359              	.LBE51:
 1360              	.LBE50:
 270:lib_convert.cpp ****         memcpy(p, &hex_ascii[m & 0xf], sizeof(uint8_t));
 1361              		.loc 1 270 9 is_stmt 1 view .LVU478
 270:lib_convert.cpp ****         memcpy(p, &hex_ascii[m & 0xf], sizeof(uint8_t));
 1362              		.loc 1 270 11 is_stmt 0 view .LVU479
 1363 0570 4883E801 		subq	$1, %rax
 1364              	.LVL170:
 271:lib_convert.cpp ****         m >>= 4;
 1365              		.loc 1 271 9 is_stmt 1 view .LVU480
 1366              	.LBB52:
 1367              	.LBI44:
  26:/usr/include/bits/string_fortified.h **** 	       size_t __len))
 1368              		.loc 2 26 1 view .LVU481
 1369              	.LBB46:
  29:/usr/include/bits/string_fortified.h **** 				 __glibc_objsize0 (__dest));
 1370              		.loc 2 29 3 view .LVU482
 1371              	.LBE46:
 1372              	.LBE52:
 271:lib_convert.cpp ****         m >>= 4;
 1373              		.loc 1 271 19 is_stmt 0 view .LVU483
 1374 0574 89F2     		movl	%esi, %edx
 1375 0576 83E20F   		andl	$15, %edx
 1376              	.LBB53:
 1377              	.LBB47:
  29:/usr/include/bits/string_fortified.h **** 				 __glibc_objsize0 (__dest));
 1378              		.loc 2 29 33 view .LVU484
 1379 0579 0FB61451 		movzbl	(%rcx,%rdx,2), %edx
 1380 057d 8810     		movb	%dl, (%rax)
 1381              	.LVL171:
  29:/usr/include/bits/string_fortified.h **** 				 __glibc_objsize0 (__dest));
GAS LISTING /tmp/cceaV4lG.s 			page 43


 1382              		.loc 2 29 33 view .LVU485
 1383              	.LBE47:
 1384              	.LBE53:
 272:lib_convert.cpp ****         i++;
 1385              		.loc 1 272 9 is_stmt 1 view .LVU486
 272:lib_convert.cpp ****         i++;
 1386              		.loc 1 272 11 is_stmt 0 view .LVU487
 1387 057f C1EE04   		shrl	$4, %esi
 1388              	.LVL172:
 273:lib_convert.cpp ****     }
 1389              		.loc 1 273 9 is_stmt 1 view .LVU488
 1390              	.L122:
 269:lib_convert.cpp ****         p -= 1;
 1391              		.loc 1 269 18 view .LVU489
 1392 0582 85F6     		testl	%esi, %esi
 1393 0584 75EA     		jne	.L123
 1394              	.LVL173:
 269:lib_convert.cpp ****         p -= 1;
 1395              		.loc 1 269 18 is_stmt 0 discriminator 1 view .LVU490
 1396 0586 4489C2   		movl	%r8d, %edx
 1397 0589 29C2     		subl	%eax, %edx
 1398 058b F6C201   		testb	$1, %dl
 1399 058e 75E0     		jne	.L123
 276:lib_convert.cpp **** }
 1400              		.loc 1 276 5 is_stmt 1 view .LVU491
 277:lib_convert.cpp **** 
 1401              		.loc 1 277 1 is_stmt 0 view .LVU492
 1402 0590 C3       		ret
 1403              		.cfi_endproc
 1404              	.LFE62:
 1405              		.size	_utoh8, .-_utoh8
 1406              		.globl	_utoh16
 1407              		.type	_utoh16, @function
 1408              	_utoh16:
 1409              	.LVL174:
 1410              	.LFB63:
 280:lib_convert.cpp ****     char *p = buf + (CONV_BASE_16_BUF_SZ - 1);   // the very end of the buffer
 1411              		.loc 1 280 1 is_stmt 1 view -0
 1412              		.cfi_startproc
 281:lib_convert.cpp ****     uint32_t m = val;
 1413              		.loc 1 281 5 view .LVU494
 281:lib_convert.cpp ****     uint32_t m = val;
 1414              		.loc 1 281 11 is_stmt 0 view .LVU495
 1415 0591 488D4F0B 		leaq	11(%rdi), %rcx
 1416              	.LVL175:
 282:lib_convert.cpp ****     uint8_t i = 0;
 1417              		.loc 1 282 5 is_stmt 1 view .LVU496
 283:lib_convert.cpp **** 
 1418              		.loc 1 283 5 view .LVU497
 285:lib_convert.cpp **** 
 1419              		.loc 1 285 5 view .LVU498
 285:lib_convert.cpp **** 
 1420              		.loc 1 285 8 is_stmt 0 view .LVU499
 1421 0595 C6470B00 		movb	$0, 11(%rdi)
 287:lib_convert.cpp ****         p -= 4;
 1422              		.loc 1 287 5 is_stmt 1 view .LVU500
 282:lib_convert.cpp ****     uint8_t i = 0;
GAS LISTING /tmp/cceaV4lG.s 			page 44


 1423              		.loc 1 282 14 is_stmt 0 view .LVU501
 1424 0599 89F0     		movl	%esi, %eax
 283:lib_convert.cpp **** 
 1425              		.loc 1 283 13 view .LVU502
 1426 059b BA000000 		movl	$0, %edx
 1426      00
 1427              	.LBB54:
 1428              	.LBB55:
  29:/usr/include/bits/string_fortified.h **** 				 __glibc_objsize0 (__dest));
 1429              		.loc 2 29 33 view .LVU503
 1430 05a0 4C8D0D00 		leaq	_ZL9hex_ascii(%rip), %r9
 1430      000000
 1431              	.LBE55:
 1432              	.LBE54:
 287:lib_convert.cpp ****         p -= 4;
 1433              		.loc 1 287 5 view .LVU504
 1434 05a7 85F6     		testl	%esi, %esi
 1435 05a9 742B     		je	.L131
 1436              	.LVL176:
 1437              	.L126:
 297:lib_convert.cpp ****         memcpy(p, &hex_ascii[m & 0xf], sizeof(uint8_t));
 1438              		.loc 1 297 9 is_stmt 1 view .LVU505
 297:lib_convert.cpp ****         memcpy(p, &hex_ascii[m & 0xf], sizeof(uint8_t));
 1439              		.loc 1 297 11 is_stmt 0 view .LVU506
 1440 05ab 4C8D41FF 		leaq	-1(%rcx), %r8
 1441              	.LVL177:
 298:lib_convert.cpp ****         m >>= 4;
 1442              		.loc 1 298 9 is_stmt 1 view .LVU507
 1443              	.LBB58:
 1444              	.LBI54:
  26:/usr/include/bits/string_fortified.h **** 	       size_t __len))
 1445              		.loc 2 26 1 view .LVU508
 1446              	.LBB56:
  29:/usr/include/bits/string_fortified.h **** 				 __glibc_objsize0 (__dest));
 1447              		.loc 2 29 3 view .LVU509
 1448              	.LBE56:
 1449              	.LBE58:
 298:lib_convert.cpp ****         m >>= 4;
 1450              		.loc 1 298 19 is_stmt 0 view .LVU510
 1451 05af 89C7     		movl	%eax, %edi
 1452 05b1 83E70F   		andl	$15, %edi
 1453              	.LBB59:
 1454              	.LBB57:
  29:/usr/include/bits/string_fortified.h **** 				 __glibc_objsize0 (__dest));
 1455              		.loc 2 29 33 view .LVU511
 1456 05b4 410FB63C 		movzbl	(%r9,%rdi,2), %edi
 1456      79
 1457 05b9 408879FF 		movb	%dil, -1(%rcx)
 1458              	.LVL178:
  29:/usr/include/bits/string_fortified.h **** 				 __glibc_objsize0 (__dest));
 1459              		.loc 2 29 33 view .LVU512
 1460              	.LBE57:
 1461              	.LBE59:
 299:lib_convert.cpp ****         i++;
 1462              		.loc 1 299 9 is_stmt 1 view .LVU513
 300:lib_convert.cpp ****     }
 1463              		.loc 1 300 9 view .LVU514
GAS LISTING /tmp/cceaV4lG.s 			page 45


 300:lib_convert.cpp ****     }
 1464              		.loc 1 300 10 is_stmt 0 view .LVU515
 1465 05bd 83C201   		addl	$1, %edx
 1466              	.LVL179:
 296:lib_convert.cpp ****         p -= 1;
 1467              		.loc 1 296 18 is_stmt 1 view .LVU516
 1468 05c0 C1E804   		shrl	$4, %eax
 1469              	.LVL180:
 296:lib_convert.cpp ****         p -= 1;
 1470              		.loc 1 296 18 is_stmt 0 view .LVU517
 1471 05c3 7527     		jne	.L128
 296:lib_convert.cpp ****         p -= 1;
 1472              		.loc 1 296 18 discriminator 1 view .LVU518
 1473 05c5 F6C201   		testb	$1, %dl
 1474 05c8 7522     		jne	.L128
 303:lib_convert.cpp ****         p -= 2;
 1475              		.loc 1 303 5 is_stmt 1 view .LVU519
 1476 05ca 81FEFF00 		cmpl	$255, %esi
 1476      0000
 1477 05d0 761F     		jbe	.L132
 1478              	.LVL181:
 1479              	.L125:
 310:lib_convert.cpp **** 
 1480              		.loc 1 310 1 is_stmt 0 view .LVU520
 1481 05d2 4C89C0   		movq	%r8, %rax
 1482              	.LVL182:
 310:lib_convert.cpp **** 
 1483              		.loc 1 310 1 view .LVU521
 1484 05d5 C3       		ret
 1485              	.LVL183:
 1486              	.L131:
 288:lib_convert.cpp ****         memcpy(p, &hex_ascii[0], sizeof(uint8_t));
 1487              		.loc 1 288 9 is_stmt 1 view .LVU522
 288:lib_convert.cpp ****         memcpy(p, &hex_ascii[0], sizeof(uint8_t));
 1488              		.loc 1 288 11 is_stmt 0 view .LVU523
 1489 05d6 4C8D4707 		leaq	7(%rdi), %r8
 1490              	.LVL184:
 289:lib_convert.cpp ****         memcpy(p + 1, &hex_ascii[0], sizeof(uint8_t));
 1491              		.loc 1 289 9 is_stmt 1 view .LVU524
 1492              	.LBB60:
 1493              	.LBI60:
  26:/usr/include/bits/string_fortified.h **** 	       size_t __len))
 1494              		.loc 2 26 1 view .LVU525
 1495              	.LBB61:
  29:/usr/include/bits/string_fortified.h **** 				 __glibc_objsize0 (__dest));
 1496              		.loc 2 29 3 view .LVU526
  29:/usr/include/bits/string_fortified.h **** 				 __glibc_objsize0 (__dest));
 1497              		.loc 2 29 33 is_stmt 0 view .LVU527
 1498 05da C6470730 		movb	$48, 7(%rdi)
 1499              	.LVL185:
  29:/usr/include/bits/string_fortified.h **** 				 __glibc_objsize0 (__dest));
 1500              		.loc 2 29 33 view .LVU528
 1501              	.LBE61:
 1502              	.LBE60:
 290:lib_convert.cpp ****         memcpy(p + 2, &hex_ascii[0], sizeof(uint8_t));
 1503              		.loc 1 290 9 is_stmt 1 view .LVU529
 1504              	.LBB62:
GAS LISTING /tmp/cceaV4lG.s 			page 46


 1505              	.LBI62:
  26:/usr/include/bits/string_fortified.h **** 	       size_t __len))
 1506              		.loc 2 26 1 view .LVU530
 1507              	.LBB63:
  29:/usr/include/bits/string_fortified.h **** 				 __glibc_objsize0 (__dest));
 1508              		.loc 2 29 3 view .LVU531
  29:/usr/include/bits/string_fortified.h **** 				 __glibc_objsize0 (__dest));
 1509              		.loc 2 29 33 is_stmt 0 view .LVU532
 1510 05de C6470830 		movb	$48, 8(%rdi)
 1511              	.LVL186:
  29:/usr/include/bits/string_fortified.h **** 				 __glibc_objsize0 (__dest));
 1512              		.loc 2 29 33 view .LVU533
 1513              	.LBE63:
 1514              	.LBE62:
 291:lib_convert.cpp ****         memcpy(p + 3, &hex_ascii[0], sizeof(uint8_t));
 1515              		.loc 1 291 9 is_stmt 1 view .LVU534
 1516              	.LBB64:
 1517              	.LBI64:
  26:/usr/include/bits/string_fortified.h **** 	       size_t __len))
 1518              		.loc 2 26 1 view .LVU535
 1519              	.LBB65:
  29:/usr/include/bits/string_fortified.h **** 				 __glibc_objsize0 (__dest));
 1520              		.loc 2 29 3 view .LVU536
  29:/usr/include/bits/string_fortified.h **** 				 __glibc_objsize0 (__dest));
 1521              		.loc 2 29 33 is_stmt 0 view .LVU537
 1522 05e2 C6470930 		movb	$48, 9(%rdi)
 1523              	.LVL187:
  29:/usr/include/bits/string_fortified.h **** 				 __glibc_objsize0 (__dest));
 1524              		.loc 2 29 33 view .LVU538
 1525              	.LBE65:
 1526              	.LBE64:
 292:lib_convert.cpp ****         return p;
 1527              		.loc 1 292 9 is_stmt 1 view .LVU539
 1528              	.LBB66:
 1529              	.LBI66:
  26:/usr/include/bits/string_fortified.h **** 	       size_t __len))
 1530              		.loc 2 26 1 view .LVU540
 1531              	.LBB67:
  29:/usr/include/bits/string_fortified.h **** 				 __glibc_objsize0 (__dest));
 1532              		.loc 2 29 3 view .LVU541
  29:/usr/include/bits/string_fortified.h **** 				 __glibc_objsize0 (__dest));
 1533              		.loc 2 29 33 is_stmt 0 view .LVU542
 1534 05e6 C6470A30 		movb	$48, 10(%rdi)
 1535              	.LVL188:
  29:/usr/include/bits/string_fortified.h **** 				 __glibc_objsize0 (__dest));
 1536              		.loc 2 29 33 view .LVU543
 1537              	.LBE67:
 1538              	.LBE66:
 293:lib_convert.cpp ****     }
 1539              		.loc 1 293 9 is_stmt 1 view .LVU544
 293:lib_convert.cpp ****     }
 1540              		.loc 1 293 16 is_stmt 0 view .LVU545
 1541 05ea EBE6     		jmp	.L125
 1542              	.LVL189:
 1543              	.L128:
 280:lib_convert.cpp ****     char *p = buf + (CONV_BASE_16_BUF_SZ - 1);   // the very end of the buffer
 1544              		.loc 1 280 1 view .LVU546
GAS LISTING /tmp/cceaV4lG.s 			page 47


 1545 05ec 4C89C1   		movq	%r8, %rcx
 1546 05ef EBBA     		jmp	.L126
 1547              	.L132:
 304:lib_convert.cpp ****         memcpy(p, &hex_ascii[0], sizeof(uint8_t));
 1548              		.loc 1 304 9 is_stmt 1 view .LVU547
 1549              	.LVL190:
 305:lib_convert.cpp ****         memcpy(p + 1, &hex_ascii[0], sizeof(uint8_t));
 1550              		.loc 1 305 9 view .LVU548
 1551              	.LBB68:
 1552              	.LBI68:
  26:/usr/include/bits/string_fortified.h **** 	       size_t __len))
 1553              		.loc 2 26 1 view .LVU549
 1554              	.LBB69:
  29:/usr/include/bits/string_fortified.h **** 				 __glibc_objsize0 (__dest));
 1555              		.loc 2 29 3 view .LVU550
  29:/usr/include/bits/string_fortified.h **** 				 __glibc_objsize0 (__dest));
 1556              		.loc 2 29 33 is_stmt 0 view .LVU551
 1557 05f1 41C640FE 		movb	$48, -2(%r8)
 1557      30
 1558              	.LVL191:
  29:/usr/include/bits/string_fortified.h **** 				 __glibc_objsize0 (__dest));
 1559              		.loc 2 29 33 view .LVU552
 1560              	.LBE69:
 1561              	.LBE68:
 306:lib_convert.cpp ****     }
 1562              		.loc 1 306 9 is_stmt 1 view .LVU553
 1563              	.LBB70:
 1564              	.LBI70:
  26:/usr/include/bits/string_fortified.h **** 	       size_t __len))
 1565              		.loc 2 26 1 view .LVU554
 1566              	.LBB71:
  29:/usr/include/bits/string_fortified.h **** 				 __glibc_objsize0 (__dest));
 1567              		.loc 2 29 3 view .LVU555
  29:/usr/include/bits/string_fortified.h **** 				 __glibc_objsize0 (__dest));
 1568              		.loc 2 29 33 is_stmt 0 view .LVU556
 1569 05f6 41C640FF 		movb	$48, -1(%r8)
 1569      30
 1570              	.LBE71:
 1571              	.LBE70:
 304:lib_convert.cpp ****         memcpy(p, &hex_ascii[0], sizeof(uint8_t));
 1572              		.loc 1 304 11 view .LVU557
 1573 05fb 4C8D41FD 		leaq	-3(%rcx), %r8
 1574              	.LVL192:
 1575              	.LBB73:
 1576              	.LBB72:
 1577              		.loc 2 30 31 view .LVU558
 1578 05ff EBD1     		jmp	.L125
 1579              	.LBE72:
 1580              	.LBE73:
 1581              		.cfi_endproc
 1582              	.LFE63:
 1583              		.size	_utoh16, .-_utoh16
 1584              		.globl	_utoh32
 1585              		.type	_utoh32, @function
 1586              	_utoh32:
 1587              	.LVL193:
 1588              	.LFB64:
GAS LISTING /tmp/cceaV4lG.s 			page 48


 313:lib_convert.cpp ****     char *p = buf + (CONV_BASE_16_BUF_SZ - 1);     // the very end of the buffer
 1589              		.loc 1 313 1 is_stmt 1 view -0
 1590              		.cfi_startproc
 314:lib_convert.cpp ****     uint32_t m = val;
 1591              		.loc 1 314 5 view .LVU560
 314:lib_convert.cpp ****     uint32_t m = val;
 1592              		.loc 1 314 11 is_stmt 0 view .LVU561
 1593 0601 488D570B 		leaq	11(%rdi), %rdx
 1594              	.LVL194:
 315:lib_convert.cpp ****     uint8_t i = 0;
 1595              		.loc 1 315 5 is_stmt 1 view .LVU562
 316:lib_convert.cpp **** 
 1596              		.loc 1 316 5 view .LVU563
 318:lib_convert.cpp **** 
 1597              		.loc 1 318 5 view .LVU564
 318:lib_convert.cpp **** 
 1598              		.loc 1 318 8 is_stmt 0 view .LVU565
 1599 0605 C6470B00 		movb	$0, 11(%rdi)
 320:lib_convert.cpp ****     for (i=0;i<8;i++) {
 1600              		.loc 1 320 5 is_stmt 1 view .LVU566
 320:lib_convert.cpp ****     for (i=0;i<8;i++) {
 1601              		.loc 1 320 7 is_stmt 0 view .LVU567
 1602 0609 4883C703 		addq	$3, %rdi
 1603              	.LVL195:
 321:lib_convert.cpp ****         *(p + i) = 0x30;
 1604              		.loc 1 321 5 is_stmt 1 view .LVU568
 321:lib_convert.cpp ****         *(p + i) = 0x30;
 1605              		.loc 1 321 15 view .LVU569
 1606 060d 4889F8   		movq	%rdi, %rax
 1607              	.LVL196:
 1608              	.L134:
 322:lib_convert.cpp ****     }
 1609              		.loc 1 322 9 discriminator 3 view .LVU570
 322:lib_convert.cpp ****     }
 1610              		.loc 1 322 18 is_stmt 0 discriminator 3 view .LVU571
 1611 0610 C60030   		movb	$48, (%rax)
 321:lib_convert.cpp ****         *(p + i) = 0x30;
 1612              		.loc 1 321 5 is_stmt 1 discriminator 3 view .LVU572
 1613              	.LVL197:
 321:lib_convert.cpp ****         *(p + i) = 0x30;
 1614              		.loc 1 321 15 discriminator 3 view .LVU573
 1615 0613 4883C001 		addq	$1, %rax
 1616              	.LVL198:
 321:lib_convert.cpp ****         *(p + i) = 0x30;
 1617              		.loc 1 321 15 is_stmt 0 discriminator 3 view .LVU574
 1618 0617 4839D0   		cmpq	%rdx, %rax
 1619 061a 75F4     		jne	.L134
 325:lib_convert.cpp ****     // groups of 8 bits
 1620              		.loc 1 325 7 view .LVU575
 1621 061c 4889D0   		movq	%rdx, %rax
 327:lib_convert.cpp ****         p -= 1;
 1622              		.loc 1 327 18 view .LVU576
 1623 061f 8D4A08   		leal	8(%rdx), %ecx
 1624              	.LBB74:
 1625              	.LBB75:
  29:/usr/include/bits/string_fortified.h **** 				 __glibc_objsize0 (__dest));
 1626              		.loc 2 29 33 view .LVU577
GAS LISTING /tmp/cceaV4lG.s 			page 49


 1627 0622 4C8D0500 		leaq	_ZL9hex_ascii(%rip), %r8
 1627      000000
 1628 0629 EB13     		jmp	.L135
 1629              	.LVL199:
 1630              	.L136:
  29:/usr/include/bits/string_fortified.h **** 				 __glibc_objsize0 (__dest));
 1631              		.loc 2 29 33 view .LVU578
 1632              	.LBE75:
 1633              	.LBE74:
 328:lib_convert.cpp ****         memcpy(p, &hex_ascii[m & 0xf], sizeof(uint8_t));
 1634              		.loc 1 328 9 is_stmt 1 view .LVU579
 328:lib_convert.cpp ****         memcpy(p, &hex_ascii[m & 0xf], sizeof(uint8_t));
 1635              		.loc 1 328 11 is_stmt 0 view .LVU580
 1636 062b 4883E801 		subq	$1, %rax
 1637              	.LVL200:
 329:lib_convert.cpp ****         m >>= 4;
 1638              		.loc 1 329 9 is_stmt 1 view .LVU581
 1639              	.LBB78:
 1640              	.LBI74:
  26:/usr/include/bits/string_fortified.h **** 	       size_t __len))
 1641              		.loc 2 26 1 view .LVU582
 1642              	.LBB76:
  29:/usr/include/bits/string_fortified.h **** 				 __glibc_objsize0 (__dest));
 1643              		.loc 2 29 3 view .LVU583
 1644              	.LBE76:
 1645              	.LBE78:
 329:lib_convert.cpp ****         m >>= 4;
 1646              		.loc 1 329 19 is_stmt 0 view .LVU584
 1647 062f 89F2     		movl	%esi, %edx
 1648 0631 83E20F   		andl	$15, %edx
 1649              	.LBB79:
 1650              	.LBB77:
  29:/usr/include/bits/string_fortified.h **** 				 __glibc_objsize0 (__dest));
 1651              		.loc 2 29 33 view .LVU585
 1652 0634 410FB614 		movzbl	(%r8,%rdx,2), %edx
 1652      50
 1653 0639 8810     		movb	%dl, (%rax)
 1654              	.LVL201:
  29:/usr/include/bits/string_fortified.h **** 				 __glibc_objsize0 (__dest));
 1655              		.loc 2 29 33 view .LVU586
 1656              	.LBE77:
 1657              	.LBE79:
 330:lib_convert.cpp ****         i++;
 1658              		.loc 1 330 9 is_stmt 1 view .LVU587
 330:lib_convert.cpp ****         i++;
 1659              		.loc 1 330 11 is_stmt 0 view .LVU588
 1660 063b C1EE04   		shrl	$4, %esi
 1661              	.LVL202:
 331:lib_convert.cpp ****     }
 1662              		.loc 1 331 9 is_stmt 1 view .LVU589
 1663              	.L135:
 327:lib_convert.cpp ****         p -= 1;
 1664              		.loc 1 327 18 view .LVU590
 1665 063e 85F6     		testl	%esi, %esi
 1666 0640 75E9     		jne	.L136
 327:lib_convert.cpp ****         p -= 1;
 1667              		.loc 1 327 18 is_stmt 0 discriminator 1 view .LVU591
GAS LISTING /tmp/cceaV4lG.s 			page 50


 1668 0642 89CA     		movl	%ecx, %edx
 1669 0644 29C2     		subl	%eax, %edx
 1670 0646 F6C201   		testb	$1, %dl
 1671 0649 75E0     		jne	.L136
 334:lib_convert.cpp **** }
 1672              		.loc 1 334 5 is_stmt 1 view .LVU592
 335:lib_convert.cpp **** 
 1673              		.loc 1 335 1 is_stmt 0 view .LVU593
 1674 064b 4889F8   		movq	%rdi, %rax
 1675              	.LVL203:
 335:lib_convert.cpp **** 
 1676              		.loc 1 335 1 view .LVU594
 1677 064e C3       		ret
 1678              		.cfi_endproc
 1679              	.LFE64:
 1680              		.size	_utoh32, .-_utoh32
 1681              		.globl	_utorh
 1682              		.type	_utorh, @function
 1683              	_utorh:
 1684              	.LVL204:
 1685              	.LFB65:
 343:lib_convert.cpp ****     char *p = &buf[11];
 1686              		.loc 1 343 1 is_stmt 1 view -0
 1687              		.cfi_startproc
 343:lib_convert.cpp ****     char *p = &buf[11];
 1688              		.loc 1 343 1 is_stmt 0 view .LVU596
 1689 064f 4189D1   		movl	%edx, %r9d
 344:lib_convert.cpp ****     uint32_t m = val;
 1690              		.loc 1 344 5 is_stmt 1 view .LVU597
 344:lib_convert.cpp ****     uint32_t m = val;
 1691              		.loc 1 344 11 is_stmt 0 view .LVU598
 1692 0652 488D470B 		leaq	11(%rdi), %rax
 1693              	.LVL205:
 345:lib_convert.cpp ****     uint8_t i = 0;
 1694              		.loc 1 345 5 is_stmt 1 view .LVU599
 346:lib_convert.cpp ****     uint8_t pc = 0;
 1695              		.loc 1 346 5 view .LVU600
 347:lib_convert.cpp **** 
 1696              		.loc 1 347 5 view .LVU601
 349:lib_convert.cpp **** 
 1697              		.loc 1 349 5 view .LVU602
 349:lib_convert.cpp **** 
 1698              		.loc 1 349 8 is_stmt 0 view .LVU603
 1699 0656 C6470B00 		movb	$0, 11(%rdi)
 351:lib_convert.cpp ****         for (pc = 0; pc < pad_size; pc++) {
 1700              		.loc 1 351 5 is_stmt 1 view .LVU604
 346:lib_convert.cpp ****     uint8_t pc = 0;
 1701              		.loc 1 346 13 is_stmt 0 view .LVU605
 1702 065a B9000000 		movl	$0, %ecx
 1702      00
 1703              	.LBB80:
 1704              	.LBB81:
  29:/usr/include/bits/string_fortified.h **** 				 __glibc_objsize0 (__dest));
 1705              		.loc 2 29 33 view .LVU606
 1706 065f 4C8D0500 		leaq	_ZL14caps_hex_ascii(%rip), %r8
 1706      000000
 1707              	.LBE81:
GAS LISTING /tmp/cceaV4lG.s 			page 51


 1708              	.LBE80:
 351:lib_convert.cpp ****         for (pc = 0; pc < pad_size; pc++) {
 1709              		.loc 1 351 5 view .LVU607
 1710 0666 85F6     		testl	%esi, %esi
 1711 0668 741E     		je	.L147
 1712              	.LVL206:
 1713              	.L144:
 361:lib_convert.cpp ****         memcpy(p, &caps_hex_ascii[m & 0xf], sizeof(uint8_t));
 1714              		.loc 1 361 9 is_stmt 1 view .LVU608
 361:lib_convert.cpp ****         memcpy(p, &caps_hex_ascii[m & 0xf], sizeof(uint8_t));
 1715              		.loc 1 361 11 is_stmt 0 view .LVU609
 1716 066a 4883E801 		subq	$1, %rax
 1717              	.LVL207:
 362:lib_convert.cpp ****         m >>= 4;
 1718              		.loc 1 362 9 is_stmt 1 view .LVU610
 1719              	.LBB84:
 1720              	.LBI80:
  26:/usr/include/bits/string_fortified.h **** 	       size_t __len))
 1721              		.loc 2 26 1 view .LVU611
 1722              	.LBB82:
  29:/usr/include/bits/string_fortified.h **** 				 __glibc_objsize0 (__dest));
 1723              		.loc 2 29 3 view .LVU612
 1724              	.LBE82:
 1725              	.LBE84:
 362:lib_convert.cpp ****         m >>= 4;
 1726              		.loc 1 362 19 is_stmt 0 view .LVU613
 1727 066e 89F2     		movl	%esi, %edx
 1728 0670 83E20F   		andl	$15, %edx
 1729              	.LBB85:
 1730              	.LBB83:
  29:/usr/include/bits/string_fortified.h **** 				 __glibc_objsize0 (__dest));
 1731              		.loc 2 29 33 view .LVU614
 1732 0673 410FB614 		movzbl	(%r8,%rdx,2), %edx
 1732      50
 1733 0678 8810     		movb	%dl, (%rax)
 1734              	.LVL208:
  29:/usr/include/bits/string_fortified.h **** 				 __glibc_objsize0 (__dest));
 1735              		.loc 2 29 33 view .LVU615
 1736              	.LBE83:
 1737              	.LBE85:
 363:lib_convert.cpp ****         i++;
 1738              		.loc 1 363 9 is_stmt 1 view .LVU616
 364:lib_convert.cpp ****     }
 1739              		.loc 1 364 9 view .LVU617
 364:lib_convert.cpp ****     }
 1740              		.loc 1 364 10 is_stmt 0 view .LVU618
 1741 067a 83C101   		addl	$1, %ecx
 1742              	.LVL209:
 360:lib_convert.cpp ****         p -= 1;
 1743              		.loc 1 360 18 is_stmt 1 view .LVU619
 1744 067d C1EE04   		shrl	$4, %esi
 1745              	.LVL210:
 360:lib_convert.cpp ****         p -= 1;
 1746              		.loc 1 360 18 is_stmt 0 view .LVU620
 1747 0680 75E8     		jne	.L144
 1748 0682 4438C9   		cmpb	%r9b, %cl
 1749 0685 72E3     		jb	.L144
GAS LISTING /tmp/cceaV4lG.s 			page 52


 368:lib_convert.cpp **** 
 1750              		.loc 1 368 1 view .LVU621
 1751 0687 C3       		ret
 1752              	.LVL211:
 1753              	.L147:
 352:lib_convert.cpp ****             memcpy(p - (pc + 1), &caps_hex_ascii[0], sizeof(uint8_t));
 1754              		.loc 1 352 25 is_stmt 1 view .LVU622
 1755 0688 84D2     		testb	%dl, %dl
 1756 068a 7416     		je	.L140
 1757 068c 4889F9   		movq	%rdi, %rcx
 1758 068f 0FB6F2   		movzbl	%dl, %esi
 1759              	.LVL212:
 352:lib_convert.cpp ****             memcpy(p - (pc + 1), &caps_hex_ascii[0], sizeof(uint8_t));
 1760              		.loc 1 352 25 is_stmt 0 view .LVU623
 1761 0692 4829F7   		subq	%rsi, %rdi
 1762              	.LVL213:
 1763              	.L141:
 353:lib_convert.cpp ****         }
 1764              		.loc 1 353 13 is_stmt 1 discriminator 3 view .LVU624
 1765              	.LBB86:
 1766              	.LBI86:
  26:/usr/include/bits/string_fortified.h **** 	       size_t __len))
 1767              		.loc 2 26 1 discriminator 3 view .LVU625
 1768              	.LBB87:
  29:/usr/include/bits/string_fortified.h **** 				 __glibc_objsize0 (__dest));
 1769              		.loc 2 29 3 discriminator 3 view .LVU626
  29:/usr/include/bits/string_fortified.h **** 				 __glibc_objsize0 (__dest));
 1770              		.loc 2 29 33 is_stmt 0 discriminator 3 view .LVU627
 1771 0695 C6410A30 		movb	$48, 10(%rcx)
 1772              	.LVL214:
  29:/usr/include/bits/string_fortified.h **** 				 __glibc_objsize0 (__dest));
 1773              		.loc 2 29 33 discriminator 3 view .LVU628
 1774              	.LBE87:
 1775              	.LBE86:
 352:lib_convert.cpp ****             memcpy(p - (pc + 1), &caps_hex_ascii[0], sizeof(uint8_t));
 1776              		.loc 1 352 9 is_stmt 1 discriminator 3 view .LVU629
 352:lib_convert.cpp ****             memcpy(p - (pc + 1), &caps_hex_ascii[0], sizeof(uint8_t));
 1777              		.loc 1 352 25 discriminator 3 view .LVU630
 1778 0699 4883E901 		subq	$1, %rcx
 1779              	.LVL215:
 352:lib_convert.cpp ****             memcpy(p - (pc + 1), &caps_hex_ascii[0], sizeof(uint8_t));
 1780              		.loc 1 352 25 is_stmt 0 discriminator 3 view .LVU631
 1781 069d 4839CF   		cmpq	%rcx, %rdi
 1782 06a0 75F3     		jne	.L141
 1783              	.LVL216:
 1784              	.L140:
 355:lib_convert.cpp ****         return p;
 1785              		.loc 1 355 9 is_stmt 1 view .LVU632
 355:lib_convert.cpp ****         return p;
 1786              		.loc 1 355 14 is_stmt 0 view .LVU633
 1787 06a2 0FB6D2   		movzbl	%dl, %edx
 1788              	.LVL217:
 355:lib_convert.cpp ****         return p;
 1789              		.loc 1 355 11 view .LVU634
 1790 06a5 4829D0   		subq	%rdx, %rax
 1791              	.LVL218:
 356:lib_convert.cpp ****     }
GAS LISTING /tmp/cceaV4lG.s 			page 53


 1792              		.loc 1 356 9 is_stmt 1 view .LVU635
 356:lib_convert.cpp ****     }
 1793              		.loc 1 356 16 is_stmt 0 view .LVU636
 1794 06a8 C3       		ret
 1795              		.cfi_endproc
 1796              	.LFE65:
 1797              		.size	_utorh, .-_utorh
 1798              		.globl	_utob
 1799              		.type	_utob, @function
 1800              	_utob:
 1801              	.LVL219:
 1802              	.LFB68:
 466:lib_convert.cpp **** 
 467:lib_convert.cpp **** static char *_uint16toa(char *buf, const uint16_t val)
 468:lib_convert.cpp **** {
 469:lib_convert.cpp ****     char *p = buf + (CONV_BASE_10_BUF_SZ - 1);  // the very end of the buffer
 470:lib_convert.cpp ****     uint32_t m = val;
 471:lib_convert.cpp **** 
 472:lib_convert.cpp ****     *p = '\0';
 473:lib_convert.cpp **** 
 474:lib_convert.cpp ****     if (val == 0) {
 475:lib_convert.cpp ****         p -= 1;
 476:lib_convert.cpp ****         *p = '0';
 477:lib_convert.cpp ****     }
 478:lib_convert.cpp **** 
 479:lib_convert.cpp ****     while (m > 0) {
 480:lib_convert.cpp ****         p -= 1;
 481:lib_convert.cpp ****         *p = (m % 10) + '0';
 482:lib_convert.cpp ****         m /= 10;
 483:lib_convert.cpp ****     }
 484:lib_convert.cpp **** 
 485:lib_convert.cpp ****     return p;
 486:lib_convert.cpp **** }
 487:lib_convert.cpp **** 
 488:lib_convert.cpp **** char *_utob(char *buf, const uint16_t val)
 489:lib_convert.cpp **** {
 1803              		.loc 1 489 1 is_stmt 1 view -0
 1804              		.cfi_startproc
 1805              		.loc 1 489 1 is_stmt 0 view .LVU638
 1806 06a9 89F0     		movl	%esi, %eax
 490:lib_convert.cpp ****     char *p = buf + (CONV_BASE_2_BUF_SZ - 1);   // the very end of the buffer
 1807              		.loc 1 490 5 is_stmt 1 view .LVU639
 1808              	.LVL220:
 491:lib_convert.cpp ****     uint16_t m = val;
 1809              		.loc 1 491 5 view .LVU640
 492:lib_convert.cpp ****     uint8_t i = 0;
 1810              		.loc 1 492 5 view .LVU641
 493:lib_convert.cpp **** 
 494:lib_convert.cpp ****     *p = '\0';
 1811              		.loc 1 494 5 view .LVU642
 1812              		.loc 1 494 8 is_stmt 0 view .LVU643
 1813 06ab C6471200 		movb	$0, 18(%rdi)
 495:lib_convert.cpp **** 
 496:lib_convert.cpp ****     if (val == 0) {
 1814              		.loc 1 496 5 is_stmt 1 view .LVU644
 490:lib_convert.cpp ****     uint16_t m = val;
 1815              		.loc 1 490 11 is_stmt 0 view .LVU645
GAS LISTING /tmp/cceaV4lG.s 			page 54


 1816 06af 488D4F12 		leaq	18(%rdi), %rcx
 1817              	.LVL221:
 1818              		.loc 1 496 5 view .LVU646
 1819 06b3 6685F6   		testw	%si, %si
 1820 06b6 7508     		jne	.L150
 497:lib_convert.cpp ****         p -= 1;
 1821              		.loc 1 497 9 is_stmt 1 view .LVU647
 1822              		.loc 1 497 11 is_stmt 0 view .LVU648
 1823 06b8 488D4F11 		leaq	17(%rdi), %rcx
 1824              	.LVL222:
 498:lib_convert.cpp ****         *p = '0';
 1825              		.loc 1 498 9 is_stmt 1 view .LVU649
 1826              		.loc 1 498 12 is_stmt 0 view .LVU650
 1827 06bc C6471130 		movb	$48, 17(%rdi)
 1828              	.L150:
 499:lib_convert.cpp ****     }
 500:lib_convert.cpp ****     // groups of 8bits
 501:lib_convert.cpp ****     while (m > 0 || (i & 7)) {
 502:lib_convert.cpp ****         if (m > 0 && !(i & 7)) {
 503:lib_convert.cpp ****             p -= 1;
 1829              		.loc 1 503 15 view .LVU651
 1830 06c0 BE000000 		movl	$0, %esi
 1830      00
 1831              	.LVL223:
 1832              		.loc 1 503 15 view .LVU652
 1833 06c5 EB23     		jmp	.L151
 1834              	.LVL224:
 1835              	.L153:
 502:lib_convert.cpp ****             p -= 1;
 1836              		.loc 1 502 19 discriminator 1 view .LVU653
 1837 06c7 40F6C607 		testb	$7, %sil
 1838 06cb 7508     		jne	.L152
 1839              		.loc 1 503 13 is_stmt 1 view .LVU654
 1840              	.LVL225:
 504:lib_convert.cpp ****             *p = ' ';
 1841              		.loc 1 504 13 view .LVU655
 1842              		.loc 1 504 16 is_stmt 0 view .LVU656
 1843 06cd C641FF20 		movb	$32, -1(%rcx)
 503:lib_convert.cpp ****             *p = ' ';
 1844              		.loc 1 503 15 view .LVU657
 1845 06d1 488D49FF 		leaq	-1(%rcx), %rcx
 1846              	.LVL226:
 1847              	.L152:
 505:lib_convert.cpp ****         }
 506:lib_convert.cpp ****         p -= 1;
 1848              		.loc 1 506 9 is_stmt 1 view .LVU658
 507:lib_convert.cpp ****         *p = (m & 0x1) + '0';
 1849              		.loc 1 507 9 view .LVU659
 1850              		.loc 1 507 17 is_stmt 0 view .LVU660
 1851 06d5 89C2     		movl	%eax, %edx
 1852 06d7 83E201   		andl	$1, %edx
 1853              		.loc 1 507 24 view .LVU661
 1854 06da 83C230   		addl	$48, %edx
 1855 06dd 8851FF   		movb	%dl, -1(%rcx)
 508:lib_convert.cpp ****         m >>= 1;
 1856              		.loc 1 508 9 is_stmt 1 view .LVU662
 1857              		.loc 1 508 11 is_stmt 0 view .LVU663
GAS LISTING /tmp/cceaV4lG.s 			page 55


 1858 06e0 66D1E8   		shrw	%ax
 1859              	.LVL227:
 509:lib_convert.cpp ****         i++;
 1860              		.loc 1 509 9 is_stmt 1 view .LVU664
 1861              		.loc 1 509 10 is_stmt 0 view .LVU665
 1862 06e3 83C601   		addl	$1, %esi
 1863              	.LVL228:
 506:lib_convert.cpp ****         *p = (m & 0x1) + '0';
 1864              		.loc 1 506 11 view .LVU666
 1865 06e6 488D49FF 		leaq	-1(%rcx), %rcx
 1866              	.LVL229:
 1867              	.L151:
 501:lib_convert.cpp ****         if (m > 0 && !(i & 7)) {
 1868              		.loc 1 501 18 is_stmt 1 view .LVU667
 1869 06ea 6685C0   		testw	%ax, %ax
 1870 06ed 75D8     		jne	.L153
 1871              	.LVL230:
 501:lib_convert.cpp ****         if (m > 0 && !(i & 7)) {
 1872              		.loc 1 501 18 is_stmt 0 discriminator 1 view .LVU668
 1873 06ef 40F6C607 		testb	$7, %sil
 1874 06f3 75E0     		jne	.L152
 510:lib_convert.cpp ****     }
 511:lib_convert.cpp **** 
 512:lib_convert.cpp ****     return p;
 1875              		.loc 1 512 5 is_stmt 1 view .LVU669
 513:lib_convert.cpp **** }
 1876              		.loc 1 513 1 is_stmt 0 view .LVU670
 1877 06f5 4889C8   		movq	%rcx, %rax
 1878 06f8 C3       		ret
 1879              		.cfi_endproc
 1880              	.LFE68:
 1881              		.size	_utob, .-_utob
 1882              		.globl	_utoa
 1883              		.type	_utoa, @function
 1884              	_utoa:
 1885              	.LVL231:
 1886              	.LFB69:
 514:lib_convert.cpp **** 
 515:lib_convert.cpp **** #endif
 516:lib_convert.cpp **** 
 517:lib_convert.cpp **** char *_utoa(char *buf, const uint32_t val)
 518:lib_convert.cpp **** {
 1887              		.loc 1 518 1 is_stmt 1 view -0
 1888              		.cfi_startproc
 519:lib_convert.cpp ****     return _uint32toa(buf, val);
 1889              		.loc 1 519 5 view .LVU672
 1890              		.loc 1 519 22 is_stmt 0 view .LVU673
 1891 06f9 E802F9FF 		call	_ZL10_uint32toaPcj
 1891      FF
 1892              	.LVL232:
 520:lib_convert.cpp **** }
 1893              		.loc 1 520 1 view .LVU674
 1894 06fe C3       		ret
 1895              		.cfi_endproc
 1896              	.LFE69:
 1897              		.size	_utoa, .-_utoa
 1898              		.globl	_itoa
GAS LISTING /tmp/cceaV4lG.s 			page 56


 1899              		.type	_itoa, @function
 1900              	_itoa:
 1901              	.LVL233:
 1902              	.LFB70:
 521:lib_convert.cpp **** 
 522:lib_convert.cpp **** char *_itoa(char *buf, const int32_t val)
 523:lib_convert.cpp **** {
 1903              		.loc 1 523 1 is_stmt 1 view -0
 1904              		.cfi_startproc
 524:lib_convert.cpp ****     char *p;
 1905              		.loc 1 524 5 view .LVU676
 525:lib_convert.cpp ****     if (val >= 0) {
 1906              		.loc 1 525 5 view .LVU677
 1907 06ff 85F6     		testl	%esi, %esi
 1908 0701 7806     		js	.L156
 526:lib_convert.cpp ****         return _uint32toa(buf, val);
 1909              		.loc 1 526 9 view .LVU678
 1910              		.loc 1 526 26 is_stmt 0 view .LVU679
 1911 0703 E8F8F8FF 		call	_ZL10_uint32toaPcj
 1911      FF
 1912              	.LVL234:
 1913              		.loc 1 526 35 view .LVU680
 1914 0708 C3       		ret
 1915              	.LVL235:
 1916              	.L156:
 527:lib_convert.cpp ****     } else {
 528:lib_convert.cpp ****         p = _uint32toa(buf, val * -1);
 1917              		.loc 1 528 9 is_stmt 1 view .LVU681
 1918              		.loc 1 528 33 is_stmt 0 view .LVU682
 1919 0709 F7DE     		negl	%esi
 1920              	.LVL236:
 1921              		.loc 1 528 23 view .LVU683
 1922 070b E8F0F8FF 		call	_ZL10_uint32toaPcj
 1922      FF
 1923              	.LVL237:
 529:lib_convert.cpp ****         *(p - 1) = '-';
 1924              		.loc 1 529 9 is_stmt 1 view .LVU684
 1925              		.loc 1 529 18 is_stmt 0 view .LVU685
 1926 0710 C640FF2D 		movb	$45, -1(%rax)
 530:lib_convert.cpp ****         return p - 1;
 1927              		.loc 1 530 9 is_stmt 1 view .LVU686
 1928              		.loc 1 530 20 is_stmt 0 view .LVU687
 1929 0714 4883E801 		subq	$1, %rax
 1930              	.LVL238:
 531:lib_convert.cpp ****     }
 532:lib_convert.cpp **** }
 1931              		.loc 1 532 1 view .LVU688
 1932 0718 C3       		ret
 1933              		.cfi_endproc
 1934              	.LFE70:
 1935              		.size	_itoa, .-_itoa
 1936              		.globl	_i16toa
 1937              		.type	_i16toa, @function
 1938              	_i16toa:
 1939              	.LVL239:
 1940              	.LFB71:
 533:lib_convert.cpp **** 
GAS LISTING /tmp/cceaV4lG.s 			page 57


 534:lib_convert.cpp **** char *_i16toa(char *buf, const int16_t val)
 535:lib_convert.cpp **** {
 1941              		.loc 1 535 1 is_stmt 1 view -0
 1942              		.cfi_startproc
 536:lib_convert.cpp ****     char *p;
 1943              		.loc 1 536 5 view .LVU690
 537:lib_convert.cpp ****     if (val >= 0) {
 1944              		.loc 1 537 5 view .LVU691
 1945 0719 6685F6   		testw	%si, %si
 1946 071c 7846     		js	.L159
 538:lib_convert.cpp ****         return _uint16toa(buf, val);
 1947              		.loc 1 538 9 view .LVU692
 1948              	.LVL240:
 1949              	.LBB92:
 1950              	.LBI92:
 467:lib_convert.cpp **** {
 1951              		.loc 1 467 14 view .LVU693
 1952              	.LBB93:
 469:lib_convert.cpp ****     uint32_t m = val;
 1953              		.loc 1 469 5 view .LVU694
 470:lib_convert.cpp **** 
 1954              		.loc 1 470 5 view .LVU695
 472:lib_convert.cpp **** 
 1955              		.loc 1 472 5 view .LVU696
 472:lib_convert.cpp **** 
 1956              		.loc 1 472 8 is_stmt 0 view .LVU697
 1957 071e C6470B00 		movb	$0, 11(%rdi)
 474:lib_convert.cpp ****         p -= 1;
 1958              		.loc 1 474 5 is_stmt 1 view .LVU698
 1959 0722 750A     		jne	.L160
 475:lib_convert.cpp ****         *p = '0';
 1960              		.loc 1 475 9 view .LVU699
 475:lib_convert.cpp ****         *p = '0';
 1961              		.loc 1 475 11 is_stmt 0 view .LVU700
 1962 0724 4C8D470A 		leaq	10(%rdi), %r8
 1963              	.LVL241:
 476:lib_convert.cpp ****     }
 1964              		.loc 1 476 9 is_stmt 1 view .LVU701
 476:lib_convert.cpp ****     }
 1965              		.loc 1 476 12 is_stmt 0 view .LVU702
 1966 0728 C6470A30 		movb	$48, 10(%rdi)
 1967              	.LVL242:
 479:lib_convert.cpp ****         p -= 1;
 1968              		.loc 1 479 14 is_stmt 1 view .LVU703
 1969 072c EB32     		jmp	.L158
 1970              	.LVL243:
 1971              	.L160:
 469:lib_convert.cpp ****     uint32_t m = val;
 1972              		.loc 1 469 11 is_stmt 0 view .LVU704
 1973 072e 4C8D470B 		leaq	11(%rdi), %r8
 470:lib_convert.cpp **** 
 1974              		.loc 1 470 14 view .LVU705
 1975 0732 0FB7D6   		movzwl	%si, %edx
 481:lib_convert.cpp ****         m /= 10;
 1976              		.loc 1 481 17 view .LVU706
 1977 0735 BFCDCCCC 		movl	$3435973837, %edi
 1977      CC
GAS LISTING /tmp/cceaV4lG.s 			page 58


 1978              	.LVL244:
 1979              	.L162:
 480:lib_convert.cpp ****         *p = (m % 10) + '0';
 1980              		.loc 1 480 9 is_stmt 1 view .LVU707
 480:lib_convert.cpp ****         *p = (m % 10) + '0';
 1981              		.loc 1 480 11 is_stmt 0 view .LVU708
 1982 073a 4983E801 		subq	$1, %r8
 1983              	.LVL245:
 481:lib_convert.cpp ****         m /= 10;
 1984              		.loc 1 481 9 is_stmt 1 view .LVU709
 481:lib_convert.cpp ****         m /= 10;
 1985              		.loc 1 481 17 is_stmt 0 view .LVU710
 1986 073e 89D0     		movl	%edx, %eax
 1987 0740 480FAFC7 		imulq	%rdi, %rax
 1988 0744 48C1E823 		shrq	$35, %rax
 1989 0748 8D3480   		leal	(%rax,%rax,4), %esi
 1990 074b 01F6     		addl	%esi, %esi
 1991 074d 89D1     		movl	%edx, %ecx
 1992 074f 29F1     		subl	%esi, %ecx
 481:lib_convert.cpp ****         m /= 10;
 1993              		.loc 1 481 23 view .LVU711
 1994 0751 83C130   		addl	$48, %ecx
 1995 0754 418808   		movb	%cl, (%r8)
 482:lib_convert.cpp ****     }
 1996              		.loc 1 482 9 is_stmt 1 view .LVU712
 1997 0757 89D1     		movl	%edx, %ecx
 482:lib_convert.cpp ****     }
 1998              		.loc 1 482 11 is_stmt 0 view .LVU713
 1999 0759 89C2     		movl	%eax, %edx
 2000              	.LVL246:
 479:lib_convert.cpp ****         p -= 1;
 2001              		.loc 1 479 14 is_stmt 1 view .LVU714
 2002 075b 83F909   		cmpl	$9, %ecx
 2003 075e 77DA     		ja	.L162
 2004              	.LVL247:
 2005              	.L158:
 479:lib_convert.cpp ****         p -= 1;
 2006              		.loc 1 479 14 is_stmt 0 view .LVU715
 2007              	.LBE93:
 2008              	.LBE92:
 539:lib_convert.cpp ****     } else {
 540:lib_convert.cpp ****         p = _uint16toa(buf, val * -1);
 541:lib_convert.cpp ****         *(p - 1) = '-';
 542:lib_convert.cpp ****         return p - 1;
 543:lib_convert.cpp ****     }
 544:lib_convert.cpp **** }
 2009              		.loc 1 544 1 view .LVU716
 2010 0760 4C89C0   		movq	%r8, %rax
 2011 0763 C3       		ret
 2012              	.LVL248:
 2013              	.L159:
 540:lib_convert.cpp ****         *(p - 1) = '-';
 2014              		.loc 1 540 9 is_stmt 1 view .LVU717
 2015              	.LBB94:
 2016              	.LBI94:
 467:lib_convert.cpp **** {
 2017              		.loc 1 467 14 view .LVU718
GAS LISTING /tmp/cceaV4lG.s 			page 59


 2018              	.LBB95:
 469:lib_convert.cpp ****     uint32_t m = val;
 2019              		.loc 1 469 5 view .LVU719
 469:lib_convert.cpp ****     uint32_t m = val;
 2020              		.loc 1 469 11 is_stmt 0 view .LVU720
 2021 0764 488D4F0B 		leaq	11(%rdi), %rcx
 2022              	.LVL249:
 470:lib_convert.cpp **** 
 2023              		.loc 1 470 5 is_stmt 1 view .LVU721
 2024              	.LBE95:
 2025              	.LBE94:
 540:lib_convert.cpp ****         *(p - 1) = '-';
 2026              		.loc 1 540 23 is_stmt 0 view .LVU722
 2027 0768 89F2     		movl	%esi, %edx
 2028 076a F7DA     		negl	%edx
 2029              	.LBB97:
 2030              	.LBB96:
 470:lib_convert.cpp **** 
 2031              		.loc 1 470 14 view .LVU723
 2032 076c 0FB7D2   		movzwl	%dx, %edx
 2033              	.LVL250:
 472:lib_convert.cpp **** 
 2034              		.loc 1 472 5 is_stmt 1 view .LVU724
 472:lib_convert.cpp **** 
 2035              		.loc 1 472 8 is_stmt 0 view .LVU725
 2036 076f C6470B00 		movb	$0, 11(%rdi)
 474:lib_convert.cpp ****         p -= 1;
 2037              		.loc 1 474 5 is_stmt 1 view .LVU726
 479:lib_convert.cpp ****         p -= 1;
 2038              		.loc 1 479 14 view .LVU727
 481:lib_convert.cpp ****         m /= 10;
 2039              		.loc 1 481 17 is_stmt 0 view .LVU728
 2040 0773 41B9CDCC 		movl	$3435973837, %r9d
 2040      CCCC
 2041              	.LVL251:
 2042              	.L163:
 480:lib_convert.cpp ****         *p = (m % 10) + '0';
 2043              		.loc 1 480 9 is_stmt 1 view .LVU729
 2044 0779 4989C8   		movq	%rcx, %r8
 480:lib_convert.cpp ****         *p = (m % 10) + '0';
 2045              		.loc 1 480 11 is_stmt 0 view .LVU730
 2046 077c 4883E901 		subq	$1, %rcx
 2047              	.LVL252:
 481:lib_convert.cpp ****         m /= 10;
 2048              		.loc 1 481 9 is_stmt 1 view .LVU731
 481:lib_convert.cpp ****         m /= 10;
 2049              		.loc 1 481 17 is_stmt 0 view .LVU732
 2050 0780 89D0     		movl	%edx, %eax
 2051 0782 490FAFC1 		imulq	%r9, %rax
 2052 0786 48C1E823 		shrq	$35, %rax
 2053 078a 8D3C80   		leal	(%rax,%rax,4), %edi
 2054 078d 01FF     		addl	%edi, %edi
 2055 078f 89D6     		movl	%edx, %esi
 2056 0791 29FE     		subl	%edi, %esi
 481:lib_convert.cpp ****         m /= 10;
 2057              		.loc 1 481 23 view .LVU733
 2058 0793 83C630   		addl	$48, %esi
GAS LISTING /tmp/cceaV4lG.s 			page 60


 2059 0796 408831   		movb	%sil, (%rcx)
 482:lib_convert.cpp ****     }
 2060              		.loc 1 482 9 is_stmt 1 view .LVU734
 2061 0799 89D6     		movl	%edx, %esi
 482:lib_convert.cpp ****     }
 2062              		.loc 1 482 11 is_stmt 0 view .LVU735
 2063 079b 89C2     		movl	%eax, %edx
 2064              	.LVL253:
 479:lib_convert.cpp ****         p -= 1;
 2065              		.loc 1 479 14 is_stmt 1 view .LVU736
 2066 079d 83FE09   		cmpl	$9, %esi
 2067 07a0 77D7     		ja	.L163
 485:lib_convert.cpp **** }
 2068              		.loc 1 485 5 view .LVU737
 2069              	.LVL254:
 485:lib_convert.cpp **** }
 2070              		.loc 1 485 5 is_stmt 0 view .LVU738
 2071              	.LBE96:
 2072              	.LBE97:
 541:lib_convert.cpp ****         return p - 1;
 2073              		.loc 1 541 9 is_stmt 1 view .LVU739
 541:lib_convert.cpp ****         return p - 1;
 2074              		.loc 1 541 18 is_stmt 0 view .LVU740
 2075 07a2 C641FF2D 		movb	$45, -1(%rcx)
 542:lib_convert.cpp ****     }
 2076              		.loc 1 542 9 is_stmt 1 view .LVU741
 542:lib_convert.cpp ****     }
 2077              		.loc 1 542 20 is_stmt 0 view .LVU742
 2078 07a6 4983E802 		subq	$2, %r8
 2079 07aa EBB4     		jmp	.L158
 2080              		.cfi_endproc
 2081              	.LFE71:
 2082              		.size	_i16toa, .-_i16toa
 2083              		.globl	prepend_padding
 2084              		.type	prepend_padding, @function
 2085              	prepend_padding:
 2086              	.LVL255:
 2087              	.LFB72:
 545:lib_convert.cpp **** 
 546:lib_convert.cpp **** char *prepend_padding(char *buf, char *converted_buf, const pad_type padding_type,
 547:lib_convert.cpp ****                       const uint8_t target_len)
 548:lib_convert.cpp **** {
 2088              		.loc 1 548 1 is_stmt 1 view -0
 2089              		.cfi_startproc
 2090              		.loc 1 548 1 is_stmt 0 view .LVU744
 2091 07ac 4155     		pushq	%r13
 2092              		.cfi_def_cfa_offset 16
 2093              		.cfi_offset 13, -16
 2094 07ae 4154     		pushq	%r12
 2095              		.cfi_def_cfa_offset 24
 2096              		.cfi_offset 12, -24
 2097 07b0 55       		pushq	%rbp
 2098              		.cfi_def_cfa_offset 32
 2099              		.cfi_offset 6, -32
 2100 07b1 53       		pushq	%rbx
 2101              		.cfi_def_cfa_offset 40
 2102              		.cfi_offset 3, -40
GAS LISTING /tmp/cceaV4lG.s 			page 61


 2103 07b2 4883EC08 		subq	$8, %rsp
 2104              		.cfi_def_cfa_offset 48
 2105 07b6 4889FB   		movq	%rdi, %rbx
 2106 07b9 4889F5   		movq	%rsi, %rbp
 2107 07bc 4189D5   		movl	%edx, %r13d
 2108 07bf 4189CC   		movl	%ecx, %r12d
 549:lib_convert.cpp ****     uint8_t conv_len;
 2109              		.loc 1 549 5 is_stmt 1 view .LVU745
 550:lib_convert.cpp ****     uint8_t buf_pos;
 2110              		.loc 1 550 5 view .LVU746
 551:lib_convert.cpp ****     uint8_t cnt;
 2111              		.loc 1 551 5 view .LVU747
 552:lib_convert.cpp ****     uint8_t padding_char = '0';
 2112              		.loc 1 552 5 view .LVU748
 2113              	.LVL256:
 553:lib_convert.cpp **** 
 554:lib_convert.cpp ****     conv_len = strlen(converted_buf);
 2114              		.loc 1 554 5 view .LVU749
 2115              		.loc 1 554 22 is_stmt 0 view .LVU750
 2116 07c2 4889F7   		movq	%rsi, %rdi
 2117              	.LVL257:
 2118              		.loc 1 554 22 view .LVU751
 2119 07c5 E8000000 		call	strlen@PLT
 2119      00
 2120              	.LVL258:
 555:lib_convert.cpp ****     buf_pos = converted_buf - buf;
 2121              		.loc 1 555 5 is_stmt 1 view .LVU752
 2122              		.loc 1 555 29 is_stmt 0 view .LVU753
 2123 07ca 4989E9   		movq	%rbp, %r9
 2124 07cd 4929D9   		subq	%rbx, %r9
 2125              	.LVL259:
 556:lib_convert.cpp **** 
 557:lib_convert.cpp ****     // if not enough buffer space is available for the prepend
 558:lib_convert.cpp ****     if (buf_pos < target_len - conv_len) {
 2126              		.loc 1 558 5 is_stmt 1 view .LVU754
 2127              		.loc 1 558 19 is_stmt 0 view .LVU755
 2128 07d0 410FB6D4 		movzbl	%r12b, %edx
 2129              		.loc 1 558 32 view .LVU756
 2130 07d4 0FB6C8   		movzbl	%al, %ecx
 2131              		.loc 1 558 30 view .LVU757
 2132 07d7 29CA     		subl	%ecx, %edx
 559:lib_convert.cpp ****         return converted_buf;
 560:lib_convert.cpp ****     }
 561:lib_convert.cpp ****     // if the converted string is already longer than the target length
 562:lib_convert.cpp ****     if (target_len <= conv_len) {
 2133              		.loc 1 562 5 is_stmt 1 view .LVU758
 2134 07d9 4438E0   		cmpb	%r12b, %al
 2135 07dc 734F     		jnb	.L167
 558:lib_convert.cpp ****         return converted_buf;
 2136              		.loc 1 558 9 is_stmt 0 view .LVU759
 2137 07de 410FB6C1 		movzbl	%r9b, %eax
 2138              	.LVL260:
 2139              		.loc 1 562 5 view .LVU760
 2140 07e2 39D0     		cmpl	%edx, %eax
 2141 07e4 7C47     		jl	.L167
 563:lib_convert.cpp ****         return converted_buf;
 564:lib_convert.cpp ****     }
GAS LISTING /tmp/cceaV4lG.s 			page 62


 565:lib_convert.cpp **** 
 566:lib_convert.cpp ****     if (padding_type == PAD_SPACES) {
 2142              		.loc 1 566 5 is_stmt 1 view .LVU761
 552:lib_convert.cpp **** 
 2143              		.loc 1 552 13 is_stmt 0 view .LVU762
 2144 07e6 4183FD02 		cmpl	$2, %r13d
 2145 07ea BF200000 		movl	$32, %edi
 2145      00
 2146 07ef B8300000 		movl	$48, %eax
 2146      00
 2147 07f4 0F45F8   		cmovne	%eax, %edi
 2148              	.LVL261:
 567:lib_convert.cpp ****         padding_char = ' ';
 568:lib_convert.cpp ****     }
 569:lib_convert.cpp **** 
 570:lib_convert.cpp ****     for (cnt = 0; cnt < target_len - conv_len; cnt++) {
 2149              		.loc 1 570 5 is_stmt 1 view .LVU763
 2150              		.loc 1 570 23 view .LVU764
 2151 07f7 85D2     		testl	%edx, %edx
 2152 07f9 7E40     		jle	.L172
 2153              		.loc 1 570 14 is_stmt 0 view .LVU765
 2154 07fb B8000000 		movl	$0, %eax
 2154      00
 571:lib_convert.cpp ****         *(buf + buf_pos - cnt - 1) = padding_char;
 2155              		.loc 1 571 17 view .LVU766
 2156 0800 450FB6C1 		movzbl	%r9b, %r8d
 2157              		.loc 1 571 31 view .LVU767
 2158 0804 4983E801 		subq	$1, %r8
 2159              	.LVL262:
 2160              	.L170:
 2161              		.loc 1 571 9 is_stmt 1 discriminator 3 view .LVU768
 2162              		.loc 1 571 27 is_stmt 0 discriminator 3 view .LVU769
 2163 0808 0FB6F0   		movzbl	%al, %esi
 2164              		.loc 1 571 31 discriminator 3 view .LVU770
 2165 080b 4C89C1   		movq	%r8, %rcx
 2166 080e 4829F1   		subq	%rsi, %rcx
 2167              		.loc 1 571 36 discriminator 3 view .LVU771
 2168 0811 40883C0B 		movb	%dil, (%rbx,%rcx)
 570:lib_convert.cpp ****         *(buf + buf_pos - cnt - 1) = padding_char;
 2169              		.loc 1 570 5 is_stmt 1 discriminator 3 view .LVU772
 2170 0815 83C001   		addl	$1, %eax
 2171              	.LVL263:
 570:lib_convert.cpp ****         *(buf + buf_pos - cnt - 1) = padding_char;
 2172              		.loc 1 570 23 discriminator 3 view .LVU773
 570:lib_convert.cpp ****         *(buf + buf_pos - cnt - 1) = padding_char;
 2173              		.loc 1 570 19 is_stmt 0 discriminator 3 view .LVU774
 2174 0818 0FB6C8   		movzbl	%al, %ecx
 570:lib_convert.cpp ****         *(buf + buf_pos - cnt - 1) = padding_char;
 2175              		.loc 1 570 23 discriminator 3 view .LVU775
 2176 081b 39CA     		cmpl	%ecx, %edx
 2177 081d 7FE9     		jg	.L170
 2178              	.LVL264:
 2179              	.L169:
 572:lib_convert.cpp ****     }
 573:lib_convert.cpp **** 
 574:lib_convert.cpp ****     return buf + buf_pos - cnt;
 2180              		.loc 1 574 5 is_stmt 1 view .LVU776
GAS LISTING /tmp/cceaV4lG.s 			page 63


 2181              		.loc 1 574 18 is_stmt 0 view .LVU777
 2182 081f 450FB6C9 		movzbl	%r9b, %r9d
 2183              		.loc 1 574 28 view .LVU778
 2184 0823 0FB6C0   		movzbl	%al, %eax
 2185              		.loc 1 574 26 view .LVU779
 2186 0826 4929C1   		subq	%rax, %r9
 2187              	.LVL265:
 2188              		.loc 1 574 28 view .LVU780
 2189 0829 4A8D2C0B 		leaq	(%rbx,%r9), %rbp
 2190              	.LVL266:
 2191              	.L167:
 575:lib_convert.cpp **** }
 2192              		.loc 1 575 1 view .LVU781
 2193 082d 4889E8   		movq	%rbp, %rax
 2194 0830 4883C408 		addq	$8, %rsp
 2195              		.cfi_remember_state
 2196              		.cfi_def_cfa_offset 40
 2197 0834 5B       		popq	%rbx
 2198              		.cfi_def_cfa_offset 32
 2199              	.LVL267:
 2200              		.loc 1 575 1 view .LVU782
 2201 0835 5D       		popq	%rbp
 2202              		.cfi_def_cfa_offset 24
 2203 0836 415C     		popq	%r12
 2204              		.cfi_def_cfa_offset 16
 2205 0838 415D     		popq	%r13
 2206              		.cfi_def_cfa_offset 8
 2207              	.LVL268:
 2208              		.loc 1 575 1 view .LVU783
 2209 083a C3       		ret
 2210              	.LVL269:
 2211              	.L172:
 2212              		.cfi_restore_state
 570:lib_convert.cpp ****         *(buf + buf_pos - cnt - 1) = padding_char;
 2213              		.loc 1 570 14 view .LVU784
 2214 083b B8000000 		movl	$0, %eax
 2214      00
 2215 0840 EBDD     		jmp	.L169
 2216              		.cfi_endproc
 2217              	.LFE72:
 2218              		.size	prepend_padding, .-prepend_padding
 2219              		.globl	mem2ascii
 2220              		.type	mem2ascii, @function
 2221              	mem2ascii:
 2222              	.LVL270:
 2223              	.LFB73:
 576:lib_convert.cpp **** 
 577:lib_convert.cpp **** void mem2ascii(uint8_t * data_in, uint8_t * data_out, uint8_t len)
 578:lib_convert.cpp **** {
 2224              		.loc 1 578 1 is_stmt 1 view -0
 2225              		.cfi_startproc
 2226              		.loc 1 578 1 is_stmt 0 view .LVU786
 2227 0842 4889F9   		movq	%rdi, %rcx
 579:lib_convert.cpp ****     uint8_t byte;
 2228              		.loc 1 579 5 is_stmt 1 view .LVU787
 580:lib_convert.cpp ****     while (len) {
 2229              		.loc 1 580 5 view .LVU788
GAS LISTING /tmp/cceaV4lG.s 			page 64


 2230              		.loc 1 580 12 view .LVU789
 2231 0845 84D2     		testb	%dl, %dl
 2232 0847 7440     		je	.L175
 2233 0849 0FB6D2   		movzbl	%dl, %edx
 2234              		.loc 1 580 12 is_stmt 0 view .LVU790
 2235 084c 4C8D0417 		leaq	(%rdi,%rdx), %r8
 2236              	.LVL271:
 2237              	.L181:
 581:lib_convert.cpp ****         byte = *data_in;
 2238              		.loc 1 581 9 is_stmt 1 view .LVU791
 582:lib_convert.cpp ****         byte >>= 4;
 2239              		.loc 1 582 9 view .LVU792
 2240              		.loc 1 582 14 is_stmt 0 view .LVU793
 2241 0850 0FB601   		movzbl	(%rcx), %eax
 2242 0853 C0E804   		shrb	$4, %al
 2243              	.LVL272:
 583:lib_convert.cpp ****         byte &= 0x0f;
 2244              		.loc 1 583 9 is_stmt 1 view .LVU794
 584:lib_convert.cpp ****         if (byte > (uint8_t) 9) {
 2245              		.loc 1 584 9 view .LVU795
 585:lib_convert.cpp ****             byte += 0x37;
 2246              		.loc 1 585 18 is_stmt 0 view .LVU796
 2247 0856 8D7837   		leal	55(%rax), %edi
 2248 0859 8D5030   		leal	48(%rax), %edx
 2249 085c 3C0A     		cmpb	$10, %al
 2250 085e 89F8     		movl	%edi, %eax
 2251              	.LVL273:
 2252              		.loc 1 585 18 view .LVU797
 2253 0860 0F42C2   		cmovb	%edx, %eax
 2254              	.LVL274:
 586:lib_convert.cpp ****         } else {
 587:lib_convert.cpp ****             byte += 0x30;
 588:lib_convert.cpp ****         }
 589:lib_convert.cpp ****         *(data_out++) = byte;
 2255              		.loc 1 589 9 is_stmt 1 view .LVU798
 2256              		.loc 1 589 23 is_stmt 0 view .LVU799
 2257 0863 8806     		movb	%al, (%rsi)
 590:lib_convert.cpp ****         byte = *(data_in++);
 2258              		.loc 1 590 9 is_stmt 1 view .LVU800
 2259              		.loc 1 590 25 is_stmt 0 view .LVU801
 2260 0865 4883C101 		addq	$1, %rcx
 2261              	.LVL275:
 591:lib_convert.cpp ****         byte &= 0x0f;
 2262              		.loc 1 591 9 is_stmt 1 view .LVU802
 2263              		.loc 1 591 14 is_stmt 0 view .LVU803
 2264 0869 0FB641FF 		movzbl	-1(%rcx), %eax
 2265 086d 83E00F   		andl	$15, %eax
 2266              	.LVL276:
 592:lib_convert.cpp ****         if (byte > (uint8_t) 9) {
 2267              		.loc 1 592 9 is_stmt 1 view .LVU804
 593:lib_convert.cpp ****             byte += 0x37;
 2268              		.loc 1 593 18 is_stmt 0 view .LVU805
 2269 0870 8D7837   		leal	55(%rax), %edi
 2270 0873 8D5030   		leal	48(%rax), %edx
 2271 0876 3C0A     		cmpb	$10, %al
 2272 0878 89F8     		movl	%edi, %eax
 2273              	.LVL277:
GAS LISTING /tmp/cceaV4lG.s 			page 65


 2274              		.loc 1 593 18 view .LVU806
 2275 087a 0F42C2   		cmovb	%edx, %eax
 2276              	.LVL278:
 594:lib_convert.cpp ****         } else {
 595:lib_convert.cpp ****             byte += 0x30;
 596:lib_convert.cpp ****         }
 597:lib_convert.cpp ****         *(data_out++) = byte;
 2277              		.loc 1 597 9 is_stmt 1 view .LVU807
 2278              		.loc 1 597 19 is_stmt 0 view .LVU808
 2279 087d 4883C602 		addq	$2, %rsi
 2280              	.LVL279:
 2281              		.loc 1 597 23 view .LVU809
 2282 0881 8846FF   		movb	%al, -1(%rsi)
 598:lib_convert.cpp ****         len--;
 2283              		.loc 1 598 9 is_stmt 1 view .LVU810
 580:lib_convert.cpp ****         byte = *data_in;
 2284              		.loc 1 580 12 view .LVU811
 2285 0884 4939C8   		cmpq	%rcx, %r8
 2286 0887 75C7     		jne	.L181
 2287              	.LVL280:
 2288              	.L175:
 599:lib_convert.cpp ****     }
 600:lib_convert.cpp **** }
 2289              		.loc 1 600 1 is_stmt 0 view .LVU812
 2290 0889 C3       		ret
 2291              		.cfi_endproc
 2292              	.LFE73:
 2293              		.size	mem2ascii, .-mem2ascii
 2294              		.globl	dec_to_bcd
 2295              		.type	dec_to_bcd, @function
 2296              	dec_to_bcd:
 2297              	.LVL281:
 2298              	.LFB74:
 601:lib_convert.cpp **** 
 602:lib_convert.cpp **** uint8_t dec_to_bcd(const uint8_t val)
 603:lib_convert.cpp **** {
 2299              		.loc 1 603 1 is_stmt 1 view -0
 2300              		.cfi_startproc
 604:lib_convert.cpp ****     return ((val / 10 * 16) + (val % 10));
 2301              		.loc 1 604 5 view .LVU814
 2302              		.loc 1 604 18 is_stmt 0 view .LVU815
 2303 088a BACDFFFF 		movl	$-51, %edx
 2303      FF
 2304 088f 89D0     		movl	%edx, %eax
 2305 0891 40F6E7   		mulb	%dil
 2306 0894 66C1E80B 		shrw	$11, %ax
 2307              		.loc 1 604 29 view .LVU816
 2308 0898 89C1     		movl	%eax, %ecx
 2309 089a C1E104   		sall	$4, %ecx
 2310              		.loc 1 604 36 view .LVU817
 2311 089d 8D0480   		leal	(%rax,%rax,4), %eax
 2312 08a0 8D1400   		leal	(%rax,%rax), %edx
 2313 08a3 29D7     		subl	%edx, %edi
 2314              	.LVL282:
 2315              		.loc 1 604 41 view .LVU818
 2316 08a5 8D0439   		leal	(%rcx,%rdi), %eax
 605:lib_convert.cpp **** }
GAS LISTING /tmp/cceaV4lG.s 			page 66


 2317              		.loc 1 605 1 view .LVU819
 2318 08a8 C3       		ret
 2319              		.cfi_endproc
 2320              	.LFE74:
 2321              		.size	dec_to_bcd, .-dec_to_bcd
 2322              		.globl	bcd_to_dec
 2323              		.type	bcd_to_dec, @function
 2324              	bcd_to_dec:
 2325              	.LVL283:
 2326              	.LFB75:
 606:lib_convert.cpp **** 
 607:lib_convert.cpp **** uint8_t bcd_to_dec(const uint8_t val)
 608:lib_convert.cpp **** {
 2327              		.loc 1 608 1 is_stmt 1 view -0
 2328              		.cfi_startproc
 609:lib_convert.cpp ****     return ((val & 0xf0) >> 4) * 10 + (val & 0x0f);
 2329              		.loc 1 609 5 view .LVU821
 2330              		.loc 1 609 26 is_stmt 0 view .LVU822
 2331 08a9 89F8     		movl	%edi, %eax
 2332 08ab C0E804   		shrb	$4, %al
 2333              		.loc 1 609 37 view .LVU823
 2334 08ae 8D0480   		leal	(%rax,%rax,4), %eax
 2335              		.loc 1 609 44 view .LVU824
 2336 08b1 83E70F   		andl	$15, %edi
 2337              	.LVL284:
 2338              		.loc 1 609 50 view .LVU825
 2339 08b4 8D0447   		leal	(%rdi,%rax,2), %eax
 610:lib_convert.cpp **** }
 2340              		.loc 1 610 1 view .LVU826
 2341 08b7 C3       		ret
 2342              		.cfi_endproc
 2343              	.LFE75:
 2344              		.size	bcd_to_dec, .-bcd_to_dec
 2345              		.globl	_flip_u16
 2346              		.type	_flip_u16, @function
 2347              	_flip_u16:
 2348              	.LVL285:
 2349              	.LFB76:
 611:lib_convert.cpp **** 
 612:lib_convert.cpp **** uint16_t _flip_u16(const uint16_t val)
 613:lib_convert.cpp **** {
 2350              		.loc 1 613 1 is_stmt 1 view -0
 2351              		.cfi_startproc
 614:lib_convert.cpp ****     uint16_t tmp;
 2352              		.loc 1 614 5 view .LVU828
 615:lib_convert.cpp ****     tmp = val << 8;
 2353              		.loc 1 615 5 view .LVU829
 616:lib_convert.cpp **** 
 617:lib_convert.cpp ****     return ((val >> 8) | tmp);
 2354              		.loc 1 617 5 view .LVU830
 2355              		.loc 1 617 29 is_stmt 0 view .LVU831
 2356 08b8 89F8     		movl	%edi, %eax
 2357 08ba 66C1C008 		rolw	$8, %ax
 618:lib_convert.cpp **** }
 2358              		.loc 1 618 1 view .LVU832
 2359 08be C3       		ret
 2360              		.cfi_endproc
GAS LISTING /tmp/cceaV4lG.s 			page 67


 2361              	.LFE76:
 2362              		.size	_flip_u16, .-_flip_u16
 2363              		.globl	_flip_u32
 2364              		.type	_flip_u32, @function
 2365              	_flip_u32:
 2366              	.LVL286:
 2367              	.LFB77:
 619:lib_convert.cpp **** 
 620:lib_convert.cpp **** uint32_t _flip_u32(const uint32_t val)
 621:lib_convert.cpp **** {
 2368              		.loc 1 621 1 is_stmt 1 view -0
 2369              		.cfi_startproc
 622:lib_convert.cpp ****     uint32_t a, b, c, d;
 2370              		.loc 1 622 5 view .LVU834
 623:lib_convert.cpp **** 
 624:lib_convert.cpp ****     a = (val & 0xff000000) >> 24;
 2371              		.loc 1 624 5 view .LVU835
 625:lib_convert.cpp ****     b = (val & 0x00ff0000) >> 8;
 2372              		.loc 1 625 5 view .LVU836
 626:lib_convert.cpp ****     c = (val & 0x0000ff00) << 8;
 2373              		.loc 1 626 5 view .LVU837
 627:lib_convert.cpp ****     d = (val & 0x000000ff) << 24;
 2374              		.loc 1 627 5 view .LVU838
 628:lib_convert.cpp **** 
 629:lib_convert.cpp ****     return (a | b | c | d);
 2375              		.loc 1 629 5 view .LVU839
 624:lib_convert.cpp ****     b = (val & 0x00ff0000) >> 8;
 2376              		.loc 1 624 7 is_stmt 0 view .LVU840
 2377 08bf 89F8     		movl	%edi, %eax
 2378 08c1 C1E818   		shrl	$24, %eax
 2379              	.LVL287:
 627:lib_convert.cpp ****     d = (val & 0x000000ff) << 24;
 2380              		.loc 1 627 7 view .LVU841
 2381 08c4 89FA     		movl	%edi, %edx
 2382 08c6 C1E218   		sall	$24, %edx
 2383              	.LVL288:
 2384              		.loc 1 629 26 view .LVU842
 2385 08c9 09D0     		orl	%edx, %eax
 2386              	.LVL289:
 625:lib_convert.cpp ****     c = (val & 0x0000ff00) << 8;
 2387              		.loc 1 625 28 view .LVU843
 2388 08cb 89FA     		movl	%edi, %edx
 2389              	.LVL290:
 625:lib_convert.cpp ****     c = (val & 0x0000ff00) << 8;
 2390              		.loc 1 625 28 view .LVU844
 2391 08cd C1EA08   		shrl	$8, %edx
 625:lib_convert.cpp ****     c = (val & 0x0000ff00) << 8;
 2392              		.loc 1 625 7 view .LVU845
 2393 08d0 81E200FF 		andl	$65280, %edx
 2393      0000
 2394              	.LVL291:
 2395              		.loc 1 629 26 view .LVU846
 2396 08d6 09D0     		orl	%edx, %eax
 626:lib_convert.cpp ****     d = (val & 0x000000ff) << 24;
 2397              		.loc 1 626 28 view .LVU847
 2398 08d8 C1E708   		sall	$8, %edi
 2399              	.LVL292:
GAS LISTING /tmp/cceaV4lG.s 			page 68


 626:lib_convert.cpp ****     d = (val & 0x000000ff) << 24;
 2400              		.loc 1 626 7 view .LVU848
 2401 08db 81E70000 		andl	$16711680, %edi
 2401      FF00
 2402              	.LVL293:
 2403              		.loc 1 629 26 view .LVU849
 2404 08e1 09F8     		orl	%edi, %eax
 630:lib_convert.cpp **** }
 2405              		.loc 1 630 1 view .LVU850
 2406 08e3 C3       		ret
 2407              		.cfi_endproc
 2408              	.LFE77:
 2409              		.size	_flip_u32, .-_flip_u32
 2410              		.globl	_wiretou32
 2411              		.type	_wiretou32, @function
 2412              	_wiretou32:
 2413              	.LVL294:
 2414              	.LFB78:
 631:lib_convert.cpp **** 
 632:lib_convert.cpp **** uint32_t _wiretou32(char *buf, const uint16_t seek, const uint16_t len)
 633:lib_convert.cpp **** {
 2415              		.loc 1 633 1 is_stmt 1 view -0
 2416              		.cfi_startproc
 2417              		.loc 1 633 1 is_stmt 0 view .LVU852
 2418 08e4 4989F8   		movq	%rdi, %r8
 2419 08e7 4189F2   		movl	%esi, %r10d
 634:lib_convert.cpp ****     uint32_t val = 0, c = 0;    //, pow = 1;
 2420              		.loc 1 634 5 is_stmt 1 view .LVU853
 2421              	.LVL295:
 635:lib_convert.cpp ****     uint8_t i, buf0;
 2422              		.loc 1 635 5 view .LVU854
 636:lib_convert.cpp ****     //char itoa_buf[18];
 637:lib_convert.cpp **** 
 638:lib_convert.cpp ****     buf0 = buf[seek];
 2423              		.loc 1 638 5 view .LVU855
 2424              		.loc 1 638 16 is_stmt 0 view .LVU856
 2425 08ea 0FB7F6   		movzwl	%si, %esi
 2426              	.LVL296:
 2427              		.loc 1 638 10 view .LVU857
 2428 08ed 0FB60437 		movzbl	(%rdi,%rsi), %eax
 2429              	.LVL297:
 639:lib_convert.cpp **** 
 640:lib_convert.cpp ****     if ((buf0 < 0x30) || (buf0 > 0x46) || (buf0 == 0x40)) {
 2430              		.loc 1 640 5 is_stmt 1 view .LVU858
 2431              		.loc 1 640 23 is_stmt 0 view .LVU859
 2432 08f1 8D48D0   		leal	-48(%rax), %ecx
 2433              		.loc 1 640 5 view .LVU860
 2434 08f4 80F916   		cmpb	$22, %cl
 2435 08f7 777F     		ja	.L188
 2436 08f9 3C40     		cmpb	$64, %al
 2437 08fb 747B     		je	.L188
 2438              	.LVL298:
 641:lib_convert.cpp ****         // binary input
 642:lib_convert.cpp ****         for (i = 0; i < len; i++) {
 643:lib_convert.cpp ****             c = buf[seek + len - i - 1];
 644:lib_convert.cpp ****             val |= c << (i * 8);
 645:lib_convert.cpp ****         }
GAS LISTING /tmp/cceaV4lG.s 			page 69


 646:lib_convert.cpp ****         return val;
 647:lib_convert.cpp ****     }
 648:lib_convert.cpp ****     // ascii(hex) input
 649:lib_convert.cpp ****     for (i = 0; i < len / 2; i++) {
 2439              		.loc 1 649 19 is_stmt 1 view .LVU861
 2440              		.loc 1 649 25 is_stmt 0 view .LVU862
 2441 08fd 4189D3   		movl	%edx, %r11d
 2442 0900 6641D1EB 		shrw	%r11w
 2443 0904 450FB7DB 		movzwl	%r11w, %r11d
 2444              		.loc 1 649 12 view .LVU863
 2445 0908 41B90000 		movl	$0, %r9d
 2445      0000
 634:lib_convert.cpp ****     uint8_t i, buf0;
 2446              		.loc 1 634 14 view .LVU864
 2447 090e BF000000 		movl	$0, %edi
 2447      00
 2448              	.LVL299:
 2449              		.loc 1 649 17 view .LVU865
 2450 0913 B9000000 		movl	$0, %ecx
 2450      00
 650:lib_convert.cpp ****         c = buf[seek + i * 2];
 2451              		.loc 1 650 17 view .LVU866
 2452 0918 450FB7D2 		movzwl	%r10w, %r10d
 649:lib_convert.cpp ****         c = buf[seek + i * 2];
 2453              		.loc 1 649 19 view .LVU867
 2454 091c 6683FA01 		cmpw	$1, %dx
 2455 0920 0F869200 		jbe	.L202
 2455      0000
 633:lib_convert.cpp ****     uint32_t val = 0, c = 0;    //, pow = 1;
 2456              		.loc 1 633 1 view .LVU868
 2457 0926 53       		pushq	%rbx
 2458              		.cfi_def_cfa_offset 16
 2459              		.cfi_offset 3, -16
 2460              	.LVL300:
 2461              	.L189:
 2462              		.loc 1 650 9 is_stmt 1 view .LVU869
 2463              		.loc 1 650 22 is_stmt 0 view .LVU870
 2464 0927 418D1C4A 		leal	(%r10,%rcx,2), %ebx
 2465 092b 4863DB   		movslq	%ebx, %rbx
 2466              		.loc 1 650 11 view .LVU871
 2467 092e 410FBE14 		movsbl	(%r8,%rbx), %edx
 2467      18
 2468              	.LVL301:
 651:lib_convert.cpp ****         if (c < 0x40) {
 2469              		.loc 1 651 9 is_stmt 1 view .LVU872
 652:lib_convert.cpp ****             c -= 48;
 2470              		.loc 1 652 15 is_stmt 0 view .LVU873
 2471 0933 8D72D0   		leal	-48(%rdx), %esi
 2472 0936 8D42C9   		leal	-55(%rdx), %eax
 2473 0939 83FA3F   		cmpl	$63, %edx
 2474 093c 0F46C6   		cmovbe	%esi, %eax
 2475              	.LVL302:
 653:lib_convert.cpp ****         } else {
 654:lib_convert.cpp ****             c -= 55;
 655:lib_convert.cpp ****         }
 656:lib_convert.cpp ****         val |= c << (i * 8 + 4);
 2476              		.loc 1 656 9 is_stmt 1 view .LVU874
GAS LISTING /tmp/cceaV4lG.s 			page 70


 2477              		.loc 1 656 24 is_stmt 0 view .LVU875
 2478 093f 8D14CD00 		leal	0(,%rcx,8), %edx
 2478      000000
 2479              		.loc 1 656 28 view .LVU876
 2480 0946 8D4A04   		leal	4(%rdx), %ecx
 2481              		.loc 1 656 18 view .LVU877
 2482 0949 D3E0     		sall	%cl, %eax
 2483              	.LVL303:
 2484              		.loc 1 656 18 view .LVU878
 2485 094b 89C6     		movl	%eax, %esi
 2486              	.LVL304:
 657:lib_convert.cpp ****         c = buf[seek + i * 2 + 1];
 2487              		.loc 1 657 9 is_stmt 1 view .LVU879
 2488              		.loc 1 657 11 is_stmt 0 view .LVU880
 2489 094d 410FBE4C 		movsbl	1(%r8,%rbx), %ecx
 2489      1801
 2490              	.LVL305:
 658:lib_convert.cpp ****         if (c < 0x40) {
 2491              		.loc 1 658 9 is_stmt 1 view .LVU881
 659:lib_convert.cpp ****             c -= 48;
 2492              		.loc 1 659 15 is_stmt 0 view .LVU882
 2493 0953 8D59D0   		leal	-48(%rcx), %ebx
 2494 0956 8D41C9   		leal	-55(%rcx), %eax
 2495              	.LVL306:
 2496              		.loc 1 659 15 view .LVU883
 2497 0959 83F93F   		cmpl	$63, %ecx
 2498 095c 0F46C3   		cmovbe	%ebx, %eax
 2499              	.LVL307:
 660:lib_convert.cpp ****         } else {
 661:lib_convert.cpp ****             c -= 55;
 662:lib_convert.cpp ****         }
 663:lib_convert.cpp ****         val |= c << (i * 8);
 2500              		.loc 1 663 9 is_stmt 1 view .LVU884
 2501              		.loc 1 663 18 is_stmt 0 view .LVU885
 2502 095f 89D1     		movl	%edx, %ecx
 2503 0961 D3E0     		sall	%cl, %eax
 2504              	.LVL308:
 2505              		.loc 1 663 13 view .LVU886
 2506 0963 09F0     		orl	%esi, %eax
 2507 0965 09C7     		orl	%eax, %edi
 2508              	.LVL309:
 649:lib_convert.cpp ****         c = buf[seek + i * 2];
 2509              		.loc 1 649 5 is_stmt 1 view .LVU887
 2510 0967 4183C101 		addl	$1, %r9d
 2511              	.LVL310:
 649:lib_convert.cpp ****         c = buf[seek + i * 2];
 2512              		.loc 1 649 19 view .LVU888
 649:lib_convert.cpp ****         c = buf[seek + i * 2];
 2513              		.loc 1 649 17 is_stmt 0 view .LVU889
 2514 096b 410FB6C9 		movzbl	%r9b, %ecx
 649:lib_convert.cpp ****         c = buf[seek + i * 2];
 2515              		.loc 1 649 19 view .LVU890
 2516 096f 4439D9   		cmpl	%r11d, %ecx
 2517 0972 7CB3     		jl	.L189
 664:lib_convert.cpp ****     }
 665:lib_convert.cpp **** 
 666:lib_convert.cpp **** /*
GAS LISTING /tmp/cceaV4lG.s 			page 71


 667:lib_convert.cpp ****     uart0_print(" val ");
 668:lib_convert.cpp ****     uart0_print(_utoh(&itoa_buf[0], val));
 669:lib_convert.cpp ****     uart0_print("\r\n");
 670:lib_convert.cpp **** */
 671:lib_convert.cpp ****     return val;
 672:lib_convert.cpp **** }
 2518              		.loc 1 672 1 view .LVU891
 2519 0974 89F8     		movl	%edi, %eax
 2520 0976 5B       		popq	%rbx
 2521              		.cfi_def_cfa_offset 8
 2522              	.LVL311:
 2523              		.loc 1 672 1 view .LVU892
 2524 0977 C3       		ret
 2525              	.LVL312:
 2526              	.L188:
 2527              		.cfi_restore 3
 642:lib_convert.cpp ****             c = buf[seek + len - i - 1];
 2528              		.loc 1 642 23 is_stmt 1 view .LVU893
 2529 0978 81E2FFFF 		andl	$65535, %edx
 2529      0000
 2530              	.LVL313:
 642:lib_convert.cpp ****             c = buf[seek + len - i - 1];
 2531              		.loc 1 642 23 is_stmt 0 view .LVU894
 2532 097e 743B     		je	.L197
 642:lib_convert.cpp ****             c = buf[seek + len - i - 1];
 2533              		.loc 1 642 16 view .LVU895
 2534 0980 41B90000 		movl	$0, %r9d
 2534      0000
 634:lib_convert.cpp ****     uint8_t i, buf0;
 2535              		.loc 1 634 14 view .LVU896
 2536 0986 BF000000 		movl	$0, %edi
 2536      00
 2537              	.LVL314:
 642:lib_convert.cpp ****             c = buf[seek + len - i - 1];
 2538              		.loc 1 642 21 view .LVU897
 2539 098b B9000000 		movl	$0, %ecx
 2539      00
 643:lib_convert.cpp ****             val |= c << (i * 8);
 2540              		.loc 1 643 21 view .LVU898
 2541 0990 450FB7D2 		movzwl	%r10w, %r10d
 643:lib_convert.cpp ****             val |= c << (i * 8);
 2542              		.loc 1 643 26 view .LVU899
 2543 0994 418D0412 		leal	(%r10,%rdx), %eax
 2544              	.LVL315:
 2545              	.L191:
 643:lib_convert.cpp ****             val |= c << (i * 8);
 2546              		.loc 1 643 13 is_stmt 1 discriminator 3 view .LVU900
 644:lib_convert.cpp ****         }
 2547              		.loc 1 644 13 discriminator 3 view .LVU901
 643:lib_convert.cpp ****             val |= c << (i * 8);
 2548              		.loc 1 643 32 is_stmt 0 discriminator 3 view .LVU902
 2549 0998 89C6     		movl	%eax, %esi
 2550 099a 29CE     		subl	%ecx, %esi
 2551 099c 4863F6   		movslq	%esi, %rsi
 643:lib_convert.cpp ****             val |= c << (i * 8);
 2552              		.loc 1 643 15 discriminator 3 view .LVU903
 2553 099f 410FBE74 		movsbl	-1(%r8,%rsi), %esi
GAS LISTING /tmp/cceaV4lG.s 			page 72


 2553      30FF
 644:lib_convert.cpp ****         }
 2554              		.loc 1 644 28 discriminator 3 view .LVU904
 2555 09a5 C1E103   		sall	$3, %ecx
 644:lib_convert.cpp ****         }
 2556              		.loc 1 644 22 discriminator 3 view .LVU905
 2557 09a8 D3E6     		sall	%cl, %esi
 644:lib_convert.cpp ****         }
 2558              		.loc 1 644 17 discriminator 3 view .LVU906
 2559 09aa 09F7     		orl	%esi, %edi
 2560              	.LVL316:
 642:lib_convert.cpp ****             c = buf[seek + len - i - 1];
 2561              		.loc 1 642 9 is_stmt 1 discriminator 3 view .LVU907
 2562 09ac 4183C101 		addl	$1, %r9d
 2563              	.LVL317:
 642:lib_convert.cpp ****             c = buf[seek + len - i - 1];
 2564              		.loc 1 642 23 discriminator 3 view .LVU908
 642:lib_convert.cpp ****             c = buf[seek + len - i - 1];
 2565              		.loc 1 642 21 is_stmt 0 discriminator 3 view .LVU909
 2566 09b0 410FB6C9 		movzbl	%r9b, %ecx
 642:lib_convert.cpp ****             c = buf[seek + len - i - 1];
 2567              		.loc 1 642 23 discriminator 3 view .LVU910
 2568 09b4 39D1     		cmpl	%edx, %ecx
 2569 09b6 7CE0     		jl	.L191
 2570              	.LVL318:
 2571              	.L202:
 2572              		.loc 1 672 1 view .LVU911
 2573 09b8 89F8     		movl	%edi, %eax
 2574 09ba C3       		ret
 2575              	.LVL319:
 2576              	.L197:
 634:lib_convert.cpp ****     uint8_t i, buf0;
 2577              		.loc 1 634 14 view .LVU912
 2578 09bb BF000000 		movl	$0, %edi
 2578      00
 2579              	.LVL320:
 634:lib_convert.cpp ****     uint8_t i, buf0;
 2580              		.loc 1 634 14 view .LVU913
 2581 09c0 EBF6     		jmp	.L202
 2582              		.cfi_endproc
 2583              	.LFE78:
 2584              		.size	_wiretou32, .-_wiretou32
 2585              		.section	.rodata
 2586              		.align 32
 2587              		.type	_ZL14caps_hex_ascii, @object
 2588              		.size	_ZL14caps_hex_ascii, 32
 2589              	_ZL14caps_hex_ascii:
 2590 0000 3000     		.value	48
 2591 0002 3100     		.value	49
 2592 0004 3200     		.value	50
 2593 0006 3300     		.value	51
 2594 0008 3400     		.value	52
 2595 000a 3500     		.value	53
 2596 000c 3600     		.value	54
 2597 000e 3700     		.value	55
 2598 0010 3800     		.value	56
 2599 0012 3900     		.value	57
GAS LISTING /tmp/cceaV4lG.s 			page 73


 2600 0014 4100     		.value	65
 2601 0016 4200     		.value	66
 2602 0018 4300     		.value	67
 2603 001a 4400     		.value	68
 2604 001c 4500     		.value	69
 2605 001e 4600     		.value	70
 2606              		.align 32
 2607              		.type	_ZL9hex_ascii, @object
 2608              		.size	_ZL9hex_ascii, 32
 2609              	_ZL9hex_ascii:
 2610 0020 3000     		.value	48
 2611 0022 3100     		.value	49
 2612 0024 3200     		.value	50
 2613 0026 3300     		.value	51
 2614 0028 3400     		.value	52
 2615 002a 3500     		.value	53
 2616 002c 3600     		.value	54
 2617 002e 3700     		.value	55
 2618 0030 3800     		.value	56
 2619 0032 3900     		.value	57
 2620 0034 6100     		.value	97
 2621 0036 6200     		.value	98
 2622 0038 6300     		.value	99
 2623 003a 6400     		.value	100
 2624 003c 6500     		.value	101
 2625 003e 6600     		.value	102
 2626              		.text
 2627              	.Letext0:
 2628              		.file 3 "/usr/include/bits/types.h"
 2629              		.file 4 "/usr/include/bits/stdint-intn.h"
 2630              		.file 5 "/usr/include/bits/stdint-uintn.h"
 2631              		.file 6 "/usr/lib/gcc/x86_64-pc-linux-gnu/12/include/stddef.h"
 2632              		.file 7 "/usr/include/stdlib.h"
 2633              		.file 8 "/usr/lib/gcc/x86_64-pc-linux-gnu/12/include/g++-v12/cstdlib"
 2634              		.file 9 "/usr/lib/gcc/x86_64-pc-linux-gnu/12/include/g++-v12/bits/std_abs.h"
 2635              		.file 10 "/usr/include/bits/stdlib-float.h"
 2636              		.file 11 "/usr/include/bits/stdlib-bsearch.h"
 2637              		.file 12 "/usr/include/bits/stdlib.h"
 2638              		.file 13 "/usr/lib/gcc/x86_64-pc-linux-gnu/12/include/g++-v12/stdlib.h"
 2639              		.file 14 "lib_convert.h"
 2640              		.file 15 "/usr/include/string.h"
 2641              		.file 16 "/usr/lib/gcc/x86_64-pc-linux-gnu/12/include/g++-v12/x86_64-pc-linux-gnu/bits/c++config.h
 12249 0040 2F686F6D 		.section	.note.GNU-stack,"",@progbits
 12249      652F7072 
 12249      6F64616E 
 12249      2F5F776F 
 12249      726B2F6C 
