GAS LISTING /tmp/cce3XYli.s 			page 1


   1              		.file	"main.cpp"
   2              		.text
   3              	.Ltext0:
   4              		.file 0 "/home/prodan/_work/linux/radar/radar_img_create" "main.cpp"
   5              		.globl	_Z6spiralPK11spiral_confPt
   6              		.type	_Z6spiralPK11spiral_confPt, @function
   7              	_Z6spiralPK11spiral_confPt:
   8              	.LVL0:
   9              	.LFB4092:
  10              		.file 1 "main.cpp"
   1:main.cpp      **** 
   2:main.cpp      **** #include <algorithm>
   3:main.cpp      **** #include <iostream>
   4:main.cpp      **** #include <iomanip>
   5:main.cpp      **** #include <random>
   6:main.cpp      **** #include <vector>
   7:main.cpp      **** #include <cmath>
   8:main.cpp      **** #include <array>
   9:main.cpp      **** #include <time.h>
  10:main.cpp      **** #include <unistd.h>
  11:main.cpp      **** 
  12:main.cpp      **** #include "lib_convert.h"
  13:main.cpp      **** #include "lodepng.h"
  14:main.cpp      **** #include "heatmap.h"
  15:main.cpp      **** #include "greys.h"
  16:main.cpp      **** #include "casbv.h"
  17:main.cpp      **** #include "version.h"
  18:main.cpp      **** 
  19:main.cpp      **** #define    SPIRAL_MAX_CNT  16
  20:main.cpp      **** //#define  SHOW_POINTS_ONLY  1
  21:main.cpp      **** 
  22:main.cpp      **** #define min(a,b) ((a) < (b) ? (a) : (b))
  23:main.cpp      **** 
  24:main.cpp      **** using namespace std;
  25:main.cpp      **** 
  26:main.cpp      **** struct spiral_conf {
  27:main.cpp      ****     uint16_t img_w;
  28:main.cpp      ****     uint16_t img_h;
  29:main.cpp      ****     uint32_t seed;
  30:main.cpp      **** };
  31:main.cpp      **** 
  32:main.cpp      **** typedef struct spiral_conf sc_t;
  33:main.cpp      **** 
  34:main.cpp      **** uint16_t spiral(const sc_t *sc, uint16_t *sp_out)
  35:main.cpp      **** {
  11              		.loc 1 35 1 view -0
  12              		.cfi_startproc
  13              		.loc 1 35 1 is_stmt 0 view .LVU1
  14 0000 4157     		pushq	%r15
  15              		.cfi_def_cfa_offset 16
  16              		.cfi_offset 15, -16
  17 0002 4156     		pushq	%r14
  18              		.cfi_def_cfa_offset 24
  19              		.cfi_offset 14, -24
  20 0004 4155     		pushq	%r13
  21              		.cfi_def_cfa_offset 32
  22              		.cfi_offset 13, -32
GAS LISTING /tmp/cce3XYli.s 			page 2


  23 0006 4154     		pushq	%r12
  24              		.cfi_def_cfa_offset 40
  25              		.cfi_offset 12, -40
  26 0008 55       		pushq	%rbp
  27              		.cfi_def_cfa_offset 48
  28              		.cfi_offset 6, -48
  29 0009 53       		pushq	%rbx
  30              		.cfi_def_cfa_offset 56
  31              		.cfi_offset 3, -56
  32 000a 4883EC48 		subq	$72, %rsp
  33              		.cfi_def_cfa_offset 128
  34 000e 4989FE   		movq	%rdi, %r14
  35 0011 48897424 		movq	%rsi, 48(%rsp)
  35      30
  36:main.cpp      ****     float angle;
  36              		.loc 1 36 5 is_stmt 1 view .LVU2
  37:main.cpp      ****     float angle_mult; // between 0.5 and 1
  37              		.loc 1 37 5 view .LVU3
  38:main.cpp      ****     uint16_t i, j;
  38              		.loc 1 38 5 view .LVU4
  39:main.cpp      ****     int exp_dist; // spiral expansion distance - between 1 and 100 
  39              		.loc 1 39 5 view .LVU5
  40:main.cpp      ****     int exp_rate; // spiral expansion rate (1 draws a circle) - between 1 and 180.
  40              		.loc 1 40 5 view .LVU6
  41:main.cpp      ****     uint16_t points_req;
  41              		.loc 1 41 5 view .LVU7
  42:main.cpp      ****     uint8_t direction;
  42              		.loc 1 42 5 view .LVU8
  43:main.cpp      ****     int32_t coord_x, coord_y;
  43              		.loc 1 43 5 view .LVU9
  44:main.cpp      ****     float rndf;
  44              		.loc 1 44 5 view .LVU10
  45:main.cpp      ****     uint16_t root_x;
  45              		.loc 1 45 5 view .LVU11
  46:main.cpp      ****     uint16_t root_y;
  46              		.loc 1 46 5 view .LVU12
  47:main.cpp      **** 
  48:main.cpp      ****     //srand(sc->seed);
  49:main.cpp      **** 
  50:main.cpp      ****     exp_rate = rand()%(sc->img_h/4) + 20;
  47              		.loc 1 50 5 view .LVU13
  48              		.loc 1 50 20 is_stmt 0 view .LVU14
  49 0016 E8000000 		call	rand@PLT
  49      00
  50              	.LVL1:
  51              		.loc 1 50 33 view .LVU15
  52 001b 410FB74E 		movzwl	2(%r14), %ecx
  52      02
  53 0020 66C1E902 		shrw	$2, %cx
  54 0024 0FB7C9   		movzwl	%cx, %ecx
  55              		.loc 1 50 22 view .LVU16
  56 0027 99       		cltd
  57 0028 F7F9     		idivl	%ecx
  58              		.loc 1 50 14 view .LVU17
  59 002a 8D4214   		leal	20(%rdx), %eax
  60 002d 89442414 		movl	%eax, 20(%rsp)
  61              	.LVL2:
GAS LISTING /tmp/cce3XYli.s 			page 3


  51:main.cpp      ****     exp_dist = rand()%(sc->img_h/7) + 20;
  62              		.loc 1 51 5 is_stmt 1 view .LVU18
  63              		.loc 1 51 20 is_stmt 0 view .LVU19
  64 0031 E8000000 		call	rand@PLT
  64      00
  65              	.LVL3:
  66              		.loc 1 51 33 view .LVU20
  67 0036 410FB756 		movzwl	2(%r14), %edx
  67      02
  68 003b 0FB7CA   		movzwl	%dx, %ecx
  69 003e 69C99324 		imull	$9363, %ecx, %ecx
  69      0000
  70 0044 C1E910   		shrl	$16, %ecx
  71 0047 29CA     		subl	%ecx, %edx
  72 0049 66D1EA   		shrw	%dx
  73 004c 01D1     		addl	%edx, %ecx
  74 004e 66C1E902 		shrw	$2, %cx
  75 0052 0FB7C9   		movzwl	%cx, %ecx
  76              		.loc 1 51 22 view .LVU21
  77 0055 99       		cltd
  78 0056 F7F9     		idivl	%ecx
  79              		.loc 1 51 14 view .LVU22
  80 0058 8D4214   		leal	20(%rdx), %eax
  81 005b 89442418 		movl	%eax, 24(%rsp)
  82              	.LVL4:
  52:main.cpp      ****     direction = rand() & 0x1;
  83              		.loc 1 52 5 is_stmt 1 view .LVU23
  84              		.loc 1 52 21 is_stmt 0 view .LVU24
  85 005f E8000000 		call	rand@PLT
  85      00
  86              	.LVL5:
  87              		.loc 1 52 15 view .LVU25
  88 0064 4189C7   		movl	%eax, %r15d
  89 0067 4183E701 		andl	$1, %r15d
  90              	.LVL6:
  53:main.cpp      ****     points_req = rand() & 0xf;
  91              		.loc 1 53 5 is_stmt 1 view .LVU26
  92              		.loc 1 53 22 is_stmt 0 view .LVU27
  93 006b E8000000 		call	rand@PLT
  93      00
  94              	.LVL7:
  54:main.cpp      ****     //points_req = 7;
  55:main.cpp      ****     if (points_req < 5) {
  95              		.loc 1 55 5 is_stmt 1 view .LVU28
  53:main.cpp      ****     points_req = rand() & 0xf;
  96              		.loc 1 53 16 is_stmt 0 view .LVU29
  97 0070 89C5     		movl	%eax, %ebp
  98 0072 83E50F   		andl	$15, %ebp
  99              		.loc 1 55 5 view .LVU30
 100 0075 B8050000 		movl	$5, %eax
 100      00
 101              	.LVL8:
 102              		.loc 1 55 5 view .LVU31
 103 007a 6639C5   		cmpw	%ax, %bp
 104 007d 0F42E8   		cmovb	%eax, %ebp
 105              	.LVL9:
  56:main.cpp      ****         points_req = 5;
GAS LISTING /tmp/cce3XYli.s 			page 4


  57:main.cpp      ****     }
  58:main.cpp      **** 
  59:main.cpp      ****     root_x = 100 + rand()%(sc->img_w - 200);
 106              		.loc 1 59 5 is_stmt 1 view .LVU32
 107              		.loc 1 59 24 is_stmt 0 view .LVU33
 108 0080 E8000000 		call	rand@PLT
 108      00
 109              	.LVL10:
 110              		.loc 1 59 32 view .LVU34
 111 0085 410FB70E 		movzwl	(%r14), %ecx
 112              		.loc 1 59 38 view .LVU35
 113 0089 81E9C800 		subl	$200, %ecx
 113      0000
 114              		.loc 1 59 26 view .LVU36
 115 008f 99       		cltd
 116 0090 F7F9     		idivl	%ecx
 117              		.loc 1 59 12 view .LVU37
 118 0092 8D4264   		leal	100(%rdx), %eax
 119 0095 66894424 		movw	%ax, 28(%rsp)
 119      1C
 120              	.LVL11:
  60:main.cpp      ****     root_y = 100 + rand()%(sc->img_h - 200);
 121              		.loc 1 60 5 is_stmt 1 view .LVU38
 122              		.loc 1 60 24 is_stmt 0 view .LVU39
 123 009a E8000000 		call	rand@PLT
 123      00
 124              	.LVL12:
 125              		.loc 1 60 32 view .LVU40
 126 009f 410FB74E 		movzwl	2(%r14), %ecx
 126      02
 127              		.loc 1 60 38 view .LVU41
 128 00a4 81E9C800 		subl	$200, %ecx
 128      0000
 129              		.loc 1 60 26 view .LVU42
 130 00aa 99       		cltd
 131 00ab F7F9     		idivl	%ecx
 132              		.loc 1 60 12 view .LVU43
 133 00ad 8D4264   		leal	100(%rdx), %eax
 134 00b0 66894424 		movw	%ax, 30(%rsp)
 134      1E
 135              	.LVL13:
  61:main.cpp      **** 
  62:main.cpp      ****     angle_mult = (rand()%500)/1000.0 + 0.5f;
 136              		.loc 1 62 5 is_stmt 1 view .LVU44
 137              		.loc 1 62 23 is_stmt 0 view .LVU45
 138 00b5 E8000000 		call	rand@PLT
 138      00
 139              	.LVL14:
 140              		.loc 1 62 25 view .LVU46
 141 00ba 4863D0   		movslq	%eax, %rdx
 142 00bd 4869D2D3 		imulq	$274877907, %rdx, %rdx
 142      4D6210
 143 00c4 48C1FA25 		sarq	$37, %rdx
 144 00c8 89C1     		movl	%eax, %ecx
 145 00ca C1F91F   		sarl	$31, %ecx
 146 00cd 29CA     		subl	%ecx, %edx
 147 00cf 69D2F401 		imull	$500, %edx, %edx
GAS LISTING /tmp/cce3XYli.s 			page 5


 147      0000
 148 00d5 29D0     		subl	%edx, %eax
 149              		.loc 1 62 30 view .LVU47
 150 00d7 660FEFC0 		pxor	%xmm0, %xmm0
 151 00db F20F2AC0 		cvtsi2sdl	%eax, %xmm0
 152 00df F20F5E05 		divsd	.LC0(%rip), %xmm0
 152      00000000 
 153              		.loc 1 62 38 view .LVU48
 154 00e7 F20F5805 		addsd	.LC1(%rip), %xmm0
 154      00000000 
 155              		.loc 1 62 16 view .LVU49
 156 00ef 660FEFFF 		pxor	%xmm7, %xmm7
 157 00f3 F20F5AF8 		cvtsd2ss	%xmm0, %xmm7
 158 00f7 F30F117C 		movss	%xmm7, 16(%rsp)
 158      2410
 159              	.LVL15:
  63:main.cpp      ****     //angle_mult = 0.7;
  64:main.cpp      **** 
  65:main.cpp      ****     i = 0;
 160              		.loc 1 65 5 is_stmt 1 view .LVU50
  66:main.cpp      ****     j = 0;
 161              		.loc 1 66 5 view .LVU51
  67:main.cpp      ****     while ((i < points_req) && (j < 100)) {
 162              		.loc 1 67 5 view .LVU52
 163              		.loc 1 67 29 view .LVU53
  66:main.cpp      ****     j = 0;
 164              		.loc 1 66 7 is_stmt 0 view .LVU54
 165 00fd BB000000 		movl	$0, %ebx
 165      00
  65:main.cpp      ****     j = 0;
 166              		.loc 1 65 7 view .LVU55
 167 0102 41BC0000 		movl	$0, %r12d
 167      0000
 168 0108 488D4424 		leaq	60(%rsp), %rax
 168      3C
 169 010d 48894424 		movq	%rax, 32(%rsp)
 169      20
 170 0112 488D4424 		leaq	56(%rsp), %rax
 170      38
 171 0117 48894424 		movq	%rax, 40(%rsp)
 171      28
 172 011c E9890000 		jmp	.L6
 172      00
 173              	.LVL16:
 174              	.L4:
  65:main.cpp      ****     j = 0;
 175              		.loc 1 65 7 view .LVU56
 176 0121 488B7424 		movq	40(%rsp), %rsi
 176      28
 177 0126 488B7C24 		movq	32(%rsp), %rdi
 177      20
 178 012b F30F1044 		movss	8(%rsp), %xmm0
 178      2408
 179 0131 E8000000 		call	sincosf@PLT
 179      00
 180              	.LVL17:
  68:main.cpp      ****         rndf = rand()%10 / 10.0;
GAS LISTING /tmp/cce3XYli.s 			page 6


  69:main.cpp      ****         if (rndf < 0.95f) {
  70:main.cpp      ****             angle = angle_mult * j;
  71:main.cpp      ****             if (direction) {
  72:main.cpp      ****                 coord_x = root_x + (exp_dist + exp_rate * angle) * cos(angle);
  73:main.cpp      ****                 coord_y = root_y + (exp_dist + exp_rate * angle) * sin(angle);
  74:main.cpp      ****             } else {
  75:main.cpp      ****                 coord_x = root_x + (exp_dist + exp_rate * angle) * sin(angle);
 181              		.loc 1 75 17 is_stmt 1 view .LVU57
 182              		.loc 1 75 57 is_stmt 0 view .LVU58
 183 0136 660FEFC0 		pxor	%xmm0, %xmm0
 184 013a F30F2A44 		cvtsi2ssl	20(%rsp), %xmm0
 184      2414
 185 0140 F30F5944 		mulss	8(%rsp), %xmm0
 185      2408
 186              		.loc 1 75 46 view .LVU59
 187 0146 660FEFC9 		pxor	%xmm1, %xmm1
 188 014a F30F2A4C 		cvtsi2ssl	24(%rsp), %xmm1
 188      2418
 189 0150 F30F58C1 		addss	%xmm1, %xmm0
 190              	.LVL18:
 191              	.LBB505:
 192              	.LBI505:
 193              		.file 2 "/usr/lib/gcc/x86_64-pc-linux-gnu/12/include/g++-v12/cmath"
   1:/usr/lib/gcc/x86_64-pc-linux-gnu/12/include/g++-v12/cmath **** // -*- C++ -*- C forwarding header.
   2:/usr/lib/gcc/x86_64-pc-linux-gnu/12/include/g++-v12/cmath **** 
   3:/usr/lib/gcc/x86_64-pc-linux-gnu/12/include/g++-v12/cmath **** // Copyright (C) 1997-2022 Free Software Foundation, Inc.
   4:/usr/lib/gcc/x86_64-pc-linux-gnu/12/include/g++-v12/cmath **** //
   5:/usr/lib/gcc/x86_64-pc-linux-gnu/12/include/g++-v12/cmath **** // This file is part of the GNU ISO C++ Library.  This library is free
   6:/usr/lib/gcc/x86_64-pc-linux-gnu/12/include/g++-v12/cmath **** // software; you can redistribute it and/or modify it under the
   7:/usr/lib/gcc/x86_64-pc-linux-gnu/12/include/g++-v12/cmath **** // terms of the GNU General Public License as published by the
   8:/usr/lib/gcc/x86_64-pc-linux-gnu/12/include/g++-v12/cmath **** // Free Software Foundation; either version 3, or (at your option)
   9:/usr/lib/gcc/x86_64-pc-linux-gnu/12/include/g++-v12/cmath **** // any later version.
  10:/usr/lib/gcc/x86_64-pc-linux-gnu/12/include/g++-v12/cmath **** 
  11:/usr/lib/gcc/x86_64-pc-linux-gnu/12/include/g++-v12/cmath **** // This library is distributed in the hope that it will be useful,
  12:/usr/lib/gcc/x86_64-pc-linux-gnu/12/include/g++-v12/cmath **** // but WITHOUT ANY WARRANTY; without even the implied warranty of
  13:/usr/lib/gcc/x86_64-pc-linux-gnu/12/include/g++-v12/cmath **** // MERCHANTABILITY or FITNESS FOR A PARTICULAR PURPOSE.  See the
  14:/usr/lib/gcc/x86_64-pc-linux-gnu/12/include/g++-v12/cmath **** // GNU General Public License for more details.
  15:/usr/lib/gcc/x86_64-pc-linux-gnu/12/include/g++-v12/cmath **** 
  16:/usr/lib/gcc/x86_64-pc-linux-gnu/12/include/g++-v12/cmath **** // Under Section 7 of GPL version 3, you are granted additional
  17:/usr/lib/gcc/x86_64-pc-linux-gnu/12/include/g++-v12/cmath **** // permissions described in the GCC Runtime Library Exception, version
  18:/usr/lib/gcc/x86_64-pc-linux-gnu/12/include/g++-v12/cmath **** // 3.1, as published by the Free Software Foundation.
  19:/usr/lib/gcc/x86_64-pc-linux-gnu/12/include/g++-v12/cmath **** 
  20:/usr/lib/gcc/x86_64-pc-linux-gnu/12/include/g++-v12/cmath **** // You should have received a copy of the GNU General Public License and
  21:/usr/lib/gcc/x86_64-pc-linux-gnu/12/include/g++-v12/cmath **** // a copy of the GCC Runtime Library Exception along with this program;
  22:/usr/lib/gcc/x86_64-pc-linux-gnu/12/include/g++-v12/cmath **** // see the files COPYING3 and COPYING.RUNTIME respectively.  If not, see
  23:/usr/lib/gcc/x86_64-pc-linux-gnu/12/include/g++-v12/cmath **** // <http://www.gnu.org/licenses/>.
  24:/usr/lib/gcc/x86_64-pc-linux-gnu/12/include/g++-v12/cmath **** 
  25:/usr/lib/gcc/x86_64-pc-linux-gnu/12/include/g++-v12/cmath **** /** @file include/cmath
  26:/usr/lib/gcc/x86_64-pc-linux-gnu/12/include/g++-v12/cmath ****  *  This is a Standard C++ Library file.  You should @c \#include this file
  27:/usr/lib/gcc/x86_64-pc-linux-gnu/12/include/g++-v12/cmath ****  *  in your programs, rather than any of the @a *.h implementation files.
  28:/usr/lib/gcc/x86_64-pc-linux-gnu/12/include/g++-v12/cmath ****  *
  29:/usr/lib/gcc/x86_64-pc-linux-gnu/12/include/g++-v12/cmath ****  *  This is the C++ version of the Standard C Library header @c math.h,
  30:/usr/lib/gcc/x86_64-pc-linux-gnu/12/include/g++-v12/cmath ****  *  and its contents are (mostly) the same as that header, but are all
  31:/usr/lib/gcc/x86_64-pc-linux-gnu/12/include/g++-v12/cmath ****  *  contained in the namespace @c std (except for names which are defined
  32:/usr/lib/gcc/x86_64-pc-linux-gnu/12/include/g++-v12/cmath ****  *  as macros in C).
  33:/usr/lib/gcc/x86_64-pc-linux-gnu/12/include/g++-v12/cmath ****  */
  34:/usr/lib/gcc/x86_64-pc-linux-gnu/12/include/g++-v12/cmath **** 
GAS LISTING /tmp/cce3XYli.s 			page 7


  35:/usr/lib/gcc/x86_64-pc-linux-gnu/12/include/g++-v12/cmath **** //
  36:/usr/lib/gcc/x86_64-pc-linux-gnu/12/include/g++-v12/cmath **** // ISO C++ 14882: 26.5  C library
  37:/usr/lib/gcc/x86_64-pc-linux-gnu/12/include/g++-v12/cmath **** //
  38:/usr/lib/gcc/x86_64-pc-linux-gnu/12/include/g++-v12/cmath **** 
  39:/usr/lib/gcc/x86_64-pc-linux-gnu/12/include/g++-v12/cmath **** #pragma GCC system_header
  40:/usr/lib/gcc/x86_64-pc-linux-gnu/12/include/g++-v12/cmath **** 
  41:/usr/lib/gcc/x86_64-pc-linux-gnu/12/include/g++-v12/cmath **** #include <bits/c++config.h>
  42:/usr/lib/gcc/x86_64-pc-linux-gnu/12/include/g++-v12/cmath **** #include <bits/cpp_type_traits.h>
  43:/usr/lib/gcc/x86_64-pc-linux-gnu/12/include/g++-v12/cmath **** #include <ext/type_traits.h>
  44:/usr/lib/gcc/x86_64-pc-linux-gnu/12/include/g++-v12/cmath **** #define _GLIBCXX_INCLUDE_NEXT_C_HEADERS
  45:/usr/lib/gcc/x86_64-pc-linux-gnu/12/include/g++-v12/cmath **** #include_next <math.h>
  46:/usr/lib/gcc/x86_64-pc-linux-gnu/12/include/g++-v12/cmath **** #undef _GLIBCXX_INCLUDE_NEXT_C_HEADERS
  47:/usr/lib/gcc/x86_64-pc-linux-gnu/12/include/g++-v12/cmath **** #include <bits/std_abs.h>
  48:/usr/lib/gcc/x86_64-pc-linux-gnu/12/include/g++-v12/cmath **** 
  49:/usr/lib/gcc/x86_64-pc-linux-gnu/12/include/g++-v12/cmath **** #ifndef _GLIBCXX_CMATH
  50:/usr/lib/gcc/x86_64-pc-linux-gnu/12/include/g++-v12/cmath **** #define _GLIBCXX_CMATH 1
  51:/usr/lib/gcc/x86_64-pc-linux-gnu/12/include/g++-v12/cmath **** 
  52:/usr/lib/gcc/x86_64-pc-linux-gnu/12/include/g++-v12/cmath **** // Get rid of those macros defined in <math.h> in lieu of real functions.
  53:/usr/lib/gcc/x86_64-pc-linux-gnu/12/include/g++-v12/cmath **** #undef div
  54:/usr/lib/gcc/x86_64-pc-linux-gnu/12/include/g++-v12/cmath **** #undef acos
  55:/usr/lib/gcc/x86_64-pc-linux-gnu/12/include/g++-v12/cmath **** #undef asin
  56:/usr/lib/gcc/x86_64-pc-linux-gnu/12/include/g++-v12/cmath **** #undef atan
  57:/usr/lib/gcc/x86_64-pc-linux-gnu/12/include/g++-v12/cmath **** #undef atan2
  58:/usr/lib/gcc/x86_64-pc-linux-gnu/12/include/g++-v12/cmath **** #undef ceil
  59:/usr/lib/gcc/x86_64-pc-linux-gnu/12/include/g++-v12/cmath **** #undef cos
  60:/usr/lib/gcc/x86_64-pc-linux-gnu/12/include/g++-v12/cmath **** #undef cosh
  61:/usr/lib/gcc/x86_64-pc-linux-gnu/12/include/g++-v12/cmath **** #undef exp
  62:/usr/lib/gcc/x86_64-pc-linux-gnu/12/include/g++-v12/cmath **** #undef fabs
  63:/usr/lib/gcc/x86_64-pc-linux-gnu/12/include/g++-v12/cmath **** #undef floor
  64:/usr/lib/gcc/x86_64-pc-linux-gnu/12/include/g++-v12/cmath **** #undef fmod
  65:/usr/lib/gcc/x86_64-pc-linux-gnu/12/include/g++-v12/cmath **** #undef frexp
  66:/usr/lib/gcc/x86_64-pc-linux-gnu/12/include/g++-v12/cmath **** #undef ldexp
  67:/usr/lib/gcc/x86_64-pc-linux-gnu/12/include/g++-v12/cmath **** #undef log
  68:/usr/lib/gcc/x86_64-pc-linux-gnu/12/include/g++-v12/cmath **** #undef log10
  69:/usr/lib/gcc/x86_64-pc-linux-gnu/12/include/g++-v12/cmath **** #undef modf
  70:/usr/lib/gcc/x86_64-pc-linux-gnu/12/include/g++-v12/cmath **** #undef pow
  71:/usr/lib/gcc/x86_64-pc-linux-gnu/12/include/g++-v12/cmath **** #undef sin
  72:/usr/lib/gcc/x86_64-pc-linux-gnu/12/include/g++-v12/cmath **** #undef sinh
  73:/usr/lib/gcc/x86_64-pc-linux-gnu/12/include/g++-v12/cmath **** #undef sqrt
  74:/usr/lib/gcc/x86_64-pc-linux-gnu/12/include/g++-v12/cmath **** #undef tan
  75:/usr/lib/gcc/x86_64-pc-linux-gnu/12/include/g++-v12/cmath **** #undef tanh
  76:/usr/lib/gcc/x86_64-pc-linux-gnu/12/include/g++-v12/cmath **** 
  77:/usr/lib/gcc/x86_64-pc-linux-gnu/12/include/g++-v12/cmath **** extern "C++"
  78:/usr/lib/gcc/x86_64-pc-linux-gnu/12/include/g++-v12/cmath **** {
  79:/usr/lib/gcc/x86_64-pc-linux-gnu/12/include/g++-v12/cmath **** namespace std _GLIBCXX_VISIBILITY(default)
  80:/usr/lib/gcc/x86_64-pc-linux-gnu/12/include/g++-v12/cmath **** {
  81:/usr/lib/gcc/x86_64-pc-linux-gnu/12/include/g++-v12/cmath **** _GLIBCXX_BEGIN_NAMESPACE_VERSION
  82:/usr/lib/gcc/x86_64-pc-linux-gnu/12/include/g++-v12/cmath **** 
  83:/usr/lib/gcc/x86_64-pc-linux-gnu/12/include/g++-v12/cmath ****   using ::acos;
  84:/usr/lib/gcc/x86_64-pc-linux-gnu/12/include/g++-v12/cmath **** 
  85:/usr/lib/gcc/x86_64-pc-linux-gnu/12/include/g++-v12/cmath **** #ifndef __CORRECT_ISO_CPP_MATH_H_PROTO
  86:/usr/lib/gcc/x86_64-pc-linux-gnu/12/include/g++-v12/cmath ****   inline _GLIBCXX_CONSTEXPR float
  87:/usr/lib/gcc/x86_64-pc-linux-gnu/12/include/g++-v12/cmath ****   acos(float __x)
  88:/usr/lib/gcc/x86_64-pc-linux-gnu/12/include/g++-v12/cmath ****   { return __builtin_acosf(__x); }
  89:/usr/lib/gcc/x86_64-pc-linux-gnu/12/include/g++-v12/cmath **** 
  90:/usr/lib/gcc/x86_64-pc-linux-gnu/12/include/g++-v12/cmath ****   inline _GLIBCXX_CONSTEXPR long double
  91:/usr/lib/gcc/x86_64-pc-linux-gnu/12/include/g++-v12/cmath ****   acos(long double __x)
GAS LISTING /tmp/cce3XYli.s 			page 8


  92:/usr/lib/gcc/x86_64-pc-linux-gnu/12/include/g++-v12/cmath ****   { return __builtin_acosl(__x); }
  93:/usr/lib/gcc/x86_64-pc-linux-gnu/12/include/g++-v12/cmath **** #endif
  94:/usr/lib/gcc/x86_64-pc-linux-gnu/12/include/g++-v12/cmath **** 
  95:/usr/lib/gcc/x86_64-pc-linux-gnu/12/include/g++-v12/cmath ****   template<typename _Tp>
  96:/usr/lib/gcc/x86_64-pc-linux-gnu/12/include/g++-v12/cmath ****     inline _GLIBCXX_CONSTEXPR
  97:/usr/lib/gcc/x86_64-pc-linux-gnu/12/include/g++-v12/cmath ****     typename __gnu_cxx::__enable_if<__is_integer<_Tp>::__value, 
  98:/usr/lib/gcc/x86_64-pc-linux-gnu/12/include/g++-v12/cmath ****                                     double>::__type
  99:/usr/lib/gcc/x86_64-pc-linux-gnu/12/include/g++-v12/cmath ****     acos(_Tp __x)
 100:/usr/lib/gcc/x86_64-pc-linux-gnu/12/include/g++-v12/cmath ****     { return __builtin_acos(__x); }
 101:/usr/lib/gcc/x86_64-pc-linux-gnu/12/include/g++-v12/cmath **** 
 102:/usr/lib/gcc/x86_64-pc-linux-gnu/12/include/g++-v12/cmath ****   using ::asin;
 103:/usr/lib/gcc/x86_64-pc-linux-gnu/12/include/g++-v12/cmath **** 
 104:/usr/lib/gcc/x86_64-pc-linux-gnu/12/include/g++-v12/cmath **** #ifndef __CORRECT_ISO_CPP_MATH_H_PROTO
 105:/usr/lib/gcc/x86_64-pc-linux-gnu/12/include/g++-v12/cmath ****   inline _GLIBCXX_CONSTEXPR float
 106:/usr/lib/gcc/x86_64-pc-linux-gnu/12/include/g++-v12/cmath ****   asin(float __x)
 107:/usr/lib/gcc/x86_64-pc-linux-gnu/12/include/g++-v12/cmath ****   { return __builtin_asinf(__x); }
 108:/usr/lib/gcc/x86_64-pc-linux-gnu/12/include/g++-v12/cmath **** 
 109:/usr/lib/gcc/x86_64-pc-linux-gnu/12/include/g++-v12/cmath ****   inline _GLIBCXX_CONSTEXPR long double
 110:/usr/lib/gcc/x86_64-pc-linux-gnu/12/include/g++-v12/cmath ****   asin(long double __x)
 111:/usr/lib/gcc/x86_64-pc-linux-gnu/12/include/g++-v12/cmath ****   { return __builtin_asinl(__x); }
 112:/usr/lib/gcc/x86_64-pc-linux-gnu/12/include/g++-v12/cmath **** #endif
 113:/usr/lib/gcc/x86_64-pc-linux-gnu/12/include/g++-v12/cmath **** 
 114:/usr/lib/gcc/x86_64-pc-linux-gnu/12/include/g++-v12/cmath ****   template<typename _Tp>
 115:/usr/lib/gcc/x86_64-pc-linux-gnu/12/include/g++-v12/cmath ****     inline _GLIBCXX_CONSTEXPR
 116:/usr/lib/gcc/x86_64-pc-linux-gnu/12/include/g++-v12/cmath ****     typename __gnu_cxx::__enable_if<__is_integer<_Tp>::__value,
 117:/usr/lib/gcc/x86_64-pc-linux-gnu/12/include/g++-v12/cmath ****                                     double>::__type
 118:/usr/lib/gcc/x86_64-pc-linux-gnu/12/include/g++-v12/cmath ****     asin(_Tp __x)
 119:/usr/lib/gcc/x86_64-pc-linux-gnu/12/include/g++-v12/cmath ****     { return __builtin_asin(__x); }
 120:/usr/lib/gcc/x86_64-pc-linux-gnu/12/include/g++-v12/cmath **** 
 121:/usr/lib/gcc/x86_64-pc-linux-gnu/12/include/g++-v12/cmath ****   using ::atan;
 122:/usr/lib/gcc/x86_64-pc-linux-gnu/12/include/g++-v12/cmath **** 
 123:/usr/lib/gcc/x86_64-pc-linux-gnu/12/include/g++-v12/cmath **** #ifndef __CORRECT_ISO_CPP_MATH_H_PROTO
 124:/usr/lib/gcc/x86_64-pc-linux-gnu/12/include/g++-v12/cmath ****   inline _GLIBCXX_CONSTEXPR float
 125:/usr/lib/gcc/x86_64-pc-linux-gnu/12/include/g++-v12/cmath ****   atan(float __x)
 126:/usr/lib/gcc/x86_64-pc-linux-gnu/12/include/g++-v12/cmath ****   { return __builtin_atanf(__x); }
 127:/usr/lib/gcc/x86_64-pc-linux-gnu/12/include/g++-v12/cmath **** 
 128:/usr/lib/gcc/x86_64-pc-linux-gnu/12/include/g++-v12/cmath ****   inline _GLIBCXX_CONSTEXPR long double
 129:/usr/lib/gcc/x86_64-pc-linux-gnu/12/include/g++-v12/cmath ****   atan(long double __x)
 130:/usr/lib/gcc/x86_64-pc-linux-gnu/12/include/g++-v12/cmath ****   { return __builtin_atanl(__x); }
 131:/usr/lib/gcc/x86_64-pc-linux-gnu/12/include/g++-v12/cmath **** #endif
 132:/usr/lib/gcc/x86_64-pc-linux-gnu/12/include/g++-v12/cmath **** 
 133:/usr/lib/gcc/x86_64-pc-linux-gnu/12/include/g++-v12/cmath ****   template<typename _Tp>
 134:/usr/lib/gcc/x86_64-pc-linux-gnu/12/include/g++-v12/cmath ****     inline _GLIBCXX_CONSTEXPR
 135:/usr/lib/gcc/x86_64-pc-linux-gnu/12/include/g++-v12/cmath ****     typename __gnu_cxx::__enable_if<__is_integer<_Tp>::__value,
 136:/usr/lib/gcc/x86_64-pc-linux-gnu/12/include/g++-v12/cmath ****                                     double>::__type
 137:/usr/lib/gcc/x86_64-pc-linux-gnu/12/include/g++-v12/cmath ****     atan(_Tp __x)
 138:/usr/lib/gcc/x86_64-pc-linux-gnu/12/include/g++-v12/cmath ****     { return __builtin_atan(__x); }
 139:/usr/lib/gcc/x86_64-pc-linux-gnu/12/include/g++-v12/cmath **** 
 140:/usr/lib/gcc/x86_64-pc-linux-gnu/12/include/g++-v12/cmath ****   using ::atan2;
 141:/usr/lib/gcc/x86_64-pc-linux-gnu/12/include/g++-v12/cmath **** 
 142:/usr/lib/gcc/x86_64-pc-linux-gnu/12/include/g++-v12/cmath **** #ifndef __CORRECT_ISO_CPP_MATH_H_PROTO
 143:/usr/lib/gcc/x86_64-pc-linux-gnu/12/include/g++-v12/cmath ****   inline _GLIBCXX_CONSTEXPR float
 144:/usr/lib/gcc/x86_64-pc-linux-gnu/12/include/g++-v12/cmath ****   atan2(float __y, float __x)
 145:/usr/lib/gcc/x86_64-pc-linux-gnu/12/include/g++-v12/cmath ****   { return __builtin_atan2f(__y, __x); }
 146:/usr/lib/gcc/x86_64-pc-linux-gnu/12/include/g++-v12/cmath **** 
 147:/usr/lib/gcc/x86_64-pc-linux-gnu/12/include/g++-v12/cmath ****   inline _GLIBCXX_CONSTEXPR long double
 148:/usr/lib/gcc/x86_64-pc-linux-gnu/12/include/g++-v12/cmath ****   atan2(long double __y, long double __x)
GAS LISTING /tmp/cce3XYli.s 			page 9


 149:/usr/lib/gcc/x86_64-pc-linux-gnu/12/include/g++-v12/cmath ****   { return __builtin_atan2l(__y, __x); }
 150:/usr/lib/gcc/x86_64-pc-linux-gnu/12/include/g++-v12/cmath **** #endif
 151:/usr/lib/gcc/x86_64-pc-linux-gnu/12/include/g++-v12/cmath **** 
 152:/usr/lib/gcc/x86_64-pc-linux-gnu/12/include/g++-v12/cmath ****   template<typename _Tp, typename _Up>
 153:/usr/lib/gcc/x86_64-pc-linux-gnu/12/include/g++-v12/cmath ****     inline _GLIBCXX_CONSTEXPR
 154:/usr/lib/gcc/x86_64-pc-linux-gnu/12/include/g++-v12/cmath ****     typename __gnu_cxx::__promote_2<_Tp, _Up>::__type
 155:/usr/lib/gcc/x86_64-pc-linux-gnu/12/include/g++-v12/cmath ****     atan2(_Tp __y, _Up __x)
 156:/usr/lib/gcc/x86_64-pc-linux-gnu/12/include/g++-v12/cmath ****     {
 157:/usr/lib/gcc/x86_64-pc-linux-gnu/12/include/g++-v12/cmath ****       typedef typename __gnu_cxx::__promote_2<_Tp, _Up>::__type __type;
 158:/usr/lib/gcc/x86_64-pc-linux-gnu/12/include/g++-v12/cmath ****       return atan2(__type(__y), __type(__x));
 159:/usr/lib/gcc/x86_64-pc-linux-gnu/12/include/g++-v12/cmath ****     }
 160:/usr/lib/gcc/x86_64-pc-linux-gnu/12/include/g++-v12/cmath **** 
 161:/usr/lib/gcc/x86_64-pc-linux-gnu/12/include/g++-v12/cmath ****   using ::ceil;
 162:/usr/lib/gcc/x86_64-pc-linux-gnu/12/include/g++-v12/cmath **** 
 163:/usr/lib/gcc/x86_64-pc-linux-gnu/12/include/g++-v12/cmath **** #ifndef __CORRECT_ISO_CPP_MATH_H_PROTO
 164:/usr/lib/gcc/x86_64-pc-linux-gnu/12/include/g++-v12/cmath ****   inline _GLIBCXX_CONSTEXPR float
 165:/usr/lib/gcc/x86_64-pc-linux-gnu/12/include/g++-v12/cmath ****   ceil(float __x)
 166:/usr/lib/gcc/x86_64-pc-linux-gnu/12/include/g++-v12/cmath ****   { return __builtin_ceilf(__x); }
 167:/usr/lib/gcc/x86_64-pc-linux-gnu/12/include/g++-v12/cmath **** 
 168:/usr/lib/gcc/x86_64-pc-linux-gnu/12/include/g++-v12/cmath ****   inline _GLIBCXX_CONSTEXPR long double
 169:/usr/lib/gcc/x86_64-pc-linux-gnu/12/include/g++-v12/cmath ****   ceil(long double __x)
 170:/usr/lib/gcc/x86_64-pc-linux-gnu/12/include/g++-v12/cmath ****   { return __builtin_ceill(__x); }
 171:/usr/lib/gcc/x86_64-pc-linux-gnu/12/include/g++-v12/cmath **** #endif
 172:/usr/lib/gcc/x86_64-pc-linux-gnu/12/include/g++-v12/cmath **** 
 173:/usr/lib/gcc/x86_64-pc-linux-gnu/12/include/g++-v12/cmath ****   template<typename _Tp>
 174:/usr/lib/gcc/x86_64-pc-linux-gnu/12/include/g++-v12/cmath ****     inline _GLIBCXX_CONSTEXPR
 175:/usr/lib/gcc/x86_64-pc-linux-gnu/12/include/g++-v12/cmath ****     typename __gnu_cxx::__enable_if<__is_integer<_Tp>::__value, 
 176:/usr/lib/gcc/x86_64-pc-linux-gnu/12/include/g++-v12/cmath ****                                     double>::__type
 177:/usr/lib/gcc/x86_64-pc-linux-gnu/12/include/g++-v12/cmath ****     ceil(_Tp __x)
 178:/usr/lib/gcc/x86_64-pc-linux-gnu/12/include/g++-v12/cmath ****     { return __builtin_ceil(__x); }
 179:/usr/lib/gcc/x86_64-pc-linux-gnu/12/include/g++-v12/cmath **** 
 180:/usr/lib/gcc/x86_64-pc-linux-gnu/12/include/g++-v12/cmath ****   using ::cos;
 181:/usr/lib/gcc/x86_64-pc-linux-gnu/12/include/g++-v12/cmath **** 
 182:/usr/lib/gcc/x86_64-pc-linux-gnu/12/include/g++-v12/cmath **** #ifndef __CORRECT_ISO_CPP_MATH_H_PROTO
 183:/usr/lib/gcc/x86_64-pc-linux-gnu/12/include/g++-v12/cmath ****   inline _GLIBCXX_CONSTEXPR float
 184:/usr/lib/gcc/x86_64-pc-linux-gnu/12/include/g++-v12/cmath ****   cos(float __x)
 185:/usr/lib/gcc/x86_64-pc-linux-gnu/12/include/g++-v12/cmath ****   { return __builtin_cosf(__x); }
 186:/usr/lib/gcc/x86_64-pc-linux-gnu/12/include/g++-v12/cmath **** 
 187:/usr/lib/gcc/x86_64-pc-linux-gnu/12/include/g++-v12/cmath ****   inline _GLIBCXX_CONSTEXPR long double
 188:/usr/lib/gcc/x86_64-pc-linux-gnu/12/include/g++-v12/cmath ****   cos(long double __x)
 189:/usr/lib/gcc/x86_64-pc-linux-gnu/12/include/g++-v12/cmath ****   { return __builtin_cosl(__x); }
 190:/usr/lib/gcc/x86_64-pc-linux-gnu/12/include/g++-v12/cmath **** #endif
 191:/usr/lib/gcc/x86_64-pc-linux-gnu/12/include/g++-v12/cmath **** 
 192:/usr/lib/gcc/x86_64-pc-linux-gnu/12/include/g++-v12/cmath ****   template<typename _Tp>
 193:/usr/lib/gcc/x86_64-pc-linux-gnu/12/include/g++-v12/cmath ****     inline _GLIBCXX_CONSTEXPR
 194:/usr/lib/gcc/x86_64-pc-linux-gnu/12/include/g++-v12/cmath ****     typename __gnu_cxx::__enable_if<__is_integer<_Tp>::__value,
 195:/usr/lib/gcc/x86_64-pc-linux-gnu/12/include/g++-v12/cmath ****                                     double>::__type
 196:/usr/lib/gcc/x86_64-pc-linux-gnu/12/include/g++-v12/cmath ****     cos(_Tp __x)
 197:/usr/lib/gcc/x86_64-pc-linux-gnu/12/include/g++-v12/cmath ****     { return __builtin_cos(__x); }
 198:/usr/lib/gcc/x86_64-pc-linux-gnu/12/include/g++-v12/cmath **** 
 199:/usr/lib/gcc/x86_64-pc-linux-gnu/12/include/g++-v12/cmath ****   using ::cosh;
 200:/usr/lib/gcc/x86_64-pc-linux-gnu/12/include/g++-v12/cmath **** 
 201:/usr/lib/gcc/x86_64-pc-linux-gnu/12/include/g++-v12/cmath **** #ifndef __CORRECT_ISO_CPP_MATH_H_PROTO
 202:/usr/lib/gcc/x86_64-pc-linux-gnu/12/include/g++-v12/cmath ****   inline _GLIBCXX_CONSTEXPR float
 203:/usr/lib/gcc/x86_64-pc-linux-gnu/12/include/g++-v12/cmath ****   cosh(float __x)
 204:/usr/lib/gcc/x86_64-pc-linux-gnu/12/include/g++-v12/cmath ****   { return __builtin_coshf(__x); }
 205:/usr/lib/gcc/x86_64-pc-linux-gnu/12/include/g++-v12/cmath **** 
GAS LISTING /tmp/cce3XYli.s 			page 10


 206:/usr/lib/gcc/x86_64-pc-linux-gnu/12/include/g++-v12/cmath ****   inline _GLIBCXX_CONSTEXPR long double
 207:/usr/lib/gcc/x86_64-pc-linux-gnu/12/include/g++-v12/cmath ****   cosh(long double __x)
 208:/usr/lib/gcc/x86_64-pc-linux-gnu/12/include/g++-v12/cmath ****   { return __builtin_coshl(__x); }
 209:/usr/lib/gcc/x86_64-pc-linux-gnu/12/include/g++-v12/cmath **** #endif
 210:/usr/lib/gcc/x86_64-pc-linux-gnu/12/include/g++-v12/cmath **** 
 211:/usr/lib/gcc/x86_64-pc-linux-gnu/12/include/g++-v12/cmath ****   template<typename _Tp>
 212:/usr/lib/gcc/x86_64-pc-linux-gnu/12/include/g++-v12/cmath ****     inline _GLIBCXX_CONSTEXPR
 213:/usr/lib/gcc/x86_64-pc-linux-gnu/12/include/g++-v12/cmath ****     typename __gnu_cxx::__enable_if<__is_integer<_Tp>::__value,
 214:/usr/lib/gcc/x86_64-pc-linux-gnu/12/include/g++-v12/cmath ****                                     double>::__type
 215:/usr/lib/gcc/x86_64-pc-linux-gnu/12/include/g++-v12/cmath ****     cosh(_Tp __x)
 216:/usr/lib/gcc/x86_64-pc-linux-gnu/12/include/g++-v12/cmath ****     { return __builtin_cosh(__x); }
 217:/usr/lib/gcc/x86_64-pc-linux-gnu/12/include/g++-v12/cmath **** 
 218:/usr/lib/gcc/x86_64-pc-linux-gnu/12/include/g++-v12/cmath ****   using ::exp;
 219:/usr/lib/gcc/x86_64-pc-linux-gnu/12/include/g++-v12/cmath **** 
 220:/usr/lib/gcc/x86_64-pc-linux-gnu/12/include/g++-v12/cmath **** #ifndef __CORRECT_ISO_CPP_MATH_H_PROTO
 221:/usr/lib/gcc/x86_64-pc-linux-gnu/12/include/g++-v12/cmath ****   inline _GLIBCXX_CONSTEXPR float
 222:/usr/lib/gcc/x86_64-pc-linux-gnu/12/include/g++-v12/cmath ****   exp(float __x)
 223:/usr/lib/gcc/x86_64-pc-linux-gnu/12/include/g++-v12/cmath ****   { return __builtin_expf(__x); }
 224:/usr/lib/gcc/x86_64-pc-linux-gnu/12/include/g++-v12/cmath **** 
 225:/usr/lib/gcc/x86_64-pc-linux-gnu/12/include/g++-v12/cmath ****   inline _GLIBCXX_CONSTEXPR long double
 226:/usr/lib/gcc/x86_64-pc-linux-gnu/12/include/g++-v12/cmath ****   exp(long double __x)
 227:/usr/lib/gcc/x86_64-pc-linux-gnu/12/include/g++-v12/cmath ****   { return __builtin_expl(__x); }
 228:/usr/lib/gcc/x86_64-pc-linux-gnu/12/include/g++-v12/cmath **** #endif
 229:/usr/lib/gcc/x86_64-pc-linux-gnu/12/include/g++-v12/cmath **** 
 230:/usr/lib/gcc/x86_64-pc-linux-gnu/12/include/g++-v12/cmath ****   template<typename _Tp>
 231:/usr/lib/gcc/x86_64-pc-linux-gnu/12/include/g++-v12/cmath ****     inline _GLIBCXX_CONSTEXPR
 232:/usr/lib/gcc/x86_64-pc-linux-gnu/12/include/g++-v12/cmath ****     typename __gnu_cxx::__enable_if<__is_integer<_Tp>::__value,
 233:/usr/lib/gcc/x86_64-pc-linux-gnu/12/include/g++-v12/cmath ****                                     double>::__type
 234:/usr/lib/gcc/x86_64-pc-linux-gnu/12/include/g++-v12/cmath ****     exp(_Tp __x)
 235:/usr/lib/gcc/x86_64-pc-linux-gnu/12/include/g++-v12/cmath ****     { return __builtin_exp(__x); }
 236:/usr/lib/gcc/x86_64-pc-linux-gnu/12/include/g++-v12/cmath **** 
 237:/usr/lib/gcc/x86_64-pc-linux-gnu/12/include/g++-v12/cmath ****   using ::fabs;
 238:/usr/lib/gcc/x86_64-pc-linux-gnu/12/include/g++-v12/cmath **** 
 239:/usr/lib/gcc/x86_64-pc-linux-gnu/12/include/g++-v12/cmath **** #ifndef __CORRECT_ISO_CPP_MATH_H_PROTO
 240:/usr/lib/gcc/x86_64-pc-linux-gnu/12/include/g++-v12/cmath ****   inline _GLIBCXX_CONSTEXPR float
 241:/usr/lib/gcc/x86_64-pc-linux-gnu/12/include/g++-v12/cmath ****   fabs(float __x)
 242:/usr/lib/gcc/x86_64-pc-linux-gnu/12/include/g++-v12/cmath ****   { return __builtin_fabsf(__x); }
 243:/usr/lib/gcc/x86_64-pc-linux-gnu/12/include/g++-v12/cmath **** 
 244:/usr/lib/gcc/x86_64-pc-linux-gnu/12/include/g++-v12/cmath ****   inline _GLIBCXX_CONSTEXPR long double
 245:/usr/lib/gcc/x86_64-pc-linux-gnu/12/include/g++-v12/cmath ****   fabs(long double __x)
 246:/usr/lib/gcc/x86_64-pc-linux-gnu/12/include/g++-v12/cmath ****   { return __builtin_fabsl(__x); }
 247:/usr/lib/gcc/x86_64-pc-linux-gnu/12/include/g++-v12/cmath **** #endif
 248:/usr/lib/gcc/x86_64-pc-linux-gnu/12/include/g++-v12/cmath **** 
 249:/usr/lib/gcc/x86_64-pc-linux-gnu/12/include/g++-v12/cmath ****   template<typename _Tp>
 250:/usr/lib/gcc/x86_64-pc-linux-gnu/12/include/g++-v12/cmath ****     inline _GLIBCXX_CONSTEXPR
 251:/usr/lib/gcc/x86_64-pc-linux-gnu/12/include/g++-v12/cmath ****     typename __gnu_cxx::__enable_if<__is_integer<_Tp>::__value,
 252:/usr/lib/gcc/x86_64-pc-linux-gnu/12/include/g++-v12/cmath ****                                     double>::__type
 253:/usr/lib/gcc/x86_64-pc-linux-gnu/12/include/g++-v12/cmath ****     fabs(_Tp __x)
 254:/usr/lib/gcc/x86_64-pc-linux-gnu/12/include/g++-v12/cmath ****     { return __builtin_fabs(__x); }
 255:/usr/lib/gcc/x86_64-pc-linux-gnu/12/include/g++-v12/cmath **** 
 256:/usr/lib/gcc/x86_64-pc-linux-gnu/12/include/g++-v12/cmath ****   using ::floor;
 257:/usr/lib/gcc/x86_64-pc-linux-gnu/12/include/g++-v12/cmath **** 
 258:/usr/lib/gcc/x86_64-pc-linux-gnu/12/include/g++-v12/cmath **** #ifndef __CORRECT_ISO_CPP_MATH_H_PROTO
 259:/usr/lib/gcc/x86_64-pc-linux-gnu/12/include/g++-v12/cmath ****   inline _GLIBCXX_CONSTEXPR float
 260:/usr/lib/gcc/x86_64-pc-linux-gnu/12/include/g++-v12/cmath ****   floor(float __x)
 261:/usr/lib/gcc/x86_64-pc-linux-gnu/12/include/g++-v12/cmath ****   { return __builtin_floorf(__x); }
 262:/usr/lib/gcc/x86_64-pc-linux-gnu/12/include/g++-v12/cmath **** 
GAS LISTING /tmp/cce3XYli.s 			page 11


 263:/usr/lib/gcc/x86_64-pc-linux-gnu/12/include/g++-v12/cmath ****   inline _GLIBCXX_CONSTEXPR long double
 264:/usr/lib/gcc/x86_64-pc-linux-gnu/12/include/g++-v12/cmath ****   floor(long double __x)
 265:/usr/lib/gcc/x86_64-pc-linux-gnu/12/include/g++-v12/cmath ****   { return __builtin_floorl(__x); }
 266:/usr/lib/gcc/x86_64-pc-linux-gnu/12/include/g++-v12/cmath **** #endif
 267:/usr/lib/gcc/x86_64-pc-linux-gnu/12/include/g++-v12/cmath **** 
 268:/usr/lib/gcc/x86_64-pc-linux-gnu/12/include/g++-v12/cmath ****   template<typename _Tp>
 269:/usr/lib/gcc/x86_64-pc-linux-gnu/12/include/g++-v12/cmath ****     inline _GLIBCXX_CONSTEXPR
 270:/usr/lib/gcc/x86_64-pc-linux-gnu/12/include/g++-v12/cmath ****     typename __gnu_cxx::__enable_if<__is_integer<_Tp>::__value,
 271:/usr/lib/gcc/x86_64-pc-linux-gnu/12/include/g++-v12/cmath ****                                     double>::__type
 272:/usr/lib/gcc/x86_64-pc-linux-gnu/12/include/g++-v12/cmath ****     floor(_Tp __x)
 273:/usr/lib/gcc/x86_64-pc-linux-gnu/12/include/g++-v12/cmath ****     { return __builtin_floor(__x); }
 274:/usr/lib/gcc/x86_64-pc-linux-gnu/12/include/g++-v12/cmath **** 
 275:/usr/lib/gcc/x86_64-pc-linux-gnu/12/include/g++-v12/cmath ****   using ::fmod;
 276:/usr/lib/gcc/x86_64-pc-linux-gnu/12/include/g++-v12/cmath **** 
 277:/usr/lib/gcc/x86_64-pc-linux-gnu/12/include/g++-v12/cmath **** #ifndef __CORRECT_ISO_CPP_MATH_H_PROTO
 278:/usr/lib/gcc/x86_64-pc-linux-gnu/12/include/g++-v12/cmath ****   inline _GLIBCXX_CONSTEXPR float
 279:/usr/lib/gcc/x86_64-pc-linux-gnu/12/include/g++-v12/cmath ****   fmod(float __x, float __y)
 280:/usr/lib/gcc/x86_64-pc-linux-gnu/12/include/g++-v12/cmath ****   { return __builtin_fmodf(__x, __y); }
 281:/usr/lib/gcc/x86_64-pc-linux-gnu/12/include/g++-v12/cmath **** 
 282:/usr/lib/gcc/x86_64-pc-linux-gnu/12/include/g++-v12/cmath ****   inline _GLIBCXX_CONSTEXPR long double
 283:/usr/lib/gcc/x86_64-pc-linux-gnu/12/include/g++-v12/cmath ****   fmod(long double __x, long double __y)
 284:/usr/lib/gcc/x86_64-pc-linux-gnu/12/include/g++-v12/cmath ****   { return __builtin_fmodl(__x, __y); }
 285:/usr/lib/gcc/x86_64-pc-linux-gnu/12/include/g++-v12/cmath **** #endif
 286:/usr/lib/gcc/x86_64-pc-linux-gnu/12/include/g++-v12/cmath **** 
 287:/usr/lib/gcc/x86_64-pc-linux-gnu/12/include/g++-v12/cmath ****   template<typename _Tp, typename _Up>
 288:/usr/lib/gcc/x86_64-pc-linux-gnu/12/include/g++-v12/cmath ****     inline _GLIBCXX_CONSTEXPR
 289:/usr/lib/gcc/x86_64-pc-linux-gnu/12/include/g++-v12/cmath ****     typename __gnu_cxx::__promote_2<_Tp, _Up>::__type
 290:/usr/lib/gcc/x86_64-pc-linux-gnu/12/include/g++-v12/cmath ****     fmod(_Tp __x, _Up __y)
 291:/usr/lib/gcc/x86_64-pc-linux-gnu/12/include/g++-v12/cmath ****     {
 292:/usr/lib/gcc/x86_64-pc-linux-gnu/12/include/g++-v12/cmath ****       typedef typename __gnu_cxx::__promote_2<_Tp, _Up>::__type __type;
 293:/usr/lib/gcc/x86_64-pc-linux-gnu/12/include/g++-v12/cmath ****       return fmod(__type(__x), __type(__y));
 294:/usr/lib/gcc/x86_64-pc-linux-gnu/12/include/g++-v12/cmath ****     }
 295:/usr/lib/gcc/x86_64-pc-linux-gnu/12/include/g++-v12/cmath **** 
 296:/usr/lib/gcc/x86_64-pc-linux-gnu/12/include/g++-v12/cmath ****   using ::frexp;
 297:/usr/lib/gcc/x86_64-pc-linux-gnu/12/include/g++-v12/cmath **** 
 298:/usr/lib/gcc/x86_64-pc-linux-gnu/12/include/g++-v12/cmath **** #ifndef __CORRECT_ISO_CPP_MATH_H_PROTO
 299:/usr/lib/gcc/x86_64-pc-linux-gnu/12/include/g++-v12/cmath ****   inline float
 300:/usr/lib/gcc/x86_64-pc-linux-gnu/12/include/g++-v12/cmath ****   frexp(float __x, int* __exp)
 301:/usr/lib/gcc/x86_64-pc-linux-gnu/12/include/g++-v12/cmath ****   { return __builtin_frexpf(__x, __exp); }
 302:/usr/lib/gcc/x86_64-pc-linux-gnu/12/include/g++-v12/cmath **** 
 303:/usr/lib/gcc/x86_64-pc-linux-gnu/12/include/g++-v12/cmath ****   inline long double
 304:/usr/lib/gcc/x86_64-pc-linux-gnu/12/include/g++-v12/cmath ****   frexp(long double __x, int* __exp)
 305:/usr/lib/gcc/x86_64-pc-linux-gnu/12/include/g++-v12/cmath ****   { return __builtin_frexpl(__x, __exp); }
 306:/usr/lib/gcc/x86_64-pc-linux-gnu/12/include/g++-v12/cmath **** #endif
 307:/usr/lib/gcc/x86_64-pc-linux-gnu/12/include/g++-v12/cmath **** 
 308:/usr/lib/gcc/x86_64-pc-linux-gnu/12/include/g++-v12/cmath ****   template<typename _Tp>
 309:/usr/lib/gcc/x86_64-pc-linux-gnu/12/include/g++-v12/cmath ****     inline _GLIBCXX_CONSTEXPR
 310:/usr/lib/gcc/x86_64-pc-linux-gnu/12/include/g++-v12/cmath ****     typename __gnu_cxx::__enable_if<__is_integer<_Tp>::__value, 
 311:/usr/lib/gcc/x86_64-pc-linux-gnu/12/include/g++-v12/cmath ****                                     double>::__type
 312:/usr/lib/gcc/x86_64-pc-linux-gnu/12/include/g++-v12/cmath ****     frexp(_Tp __x, int* __exp)
 313:/usr/lib/gcc/x86_64-pc-linux-gnu/12/include/g++-v12/cmath ****     { return __builtin_frexp(__x, __exp); }
 314:/usr/lib/gcc/x86_64-pc-linux-gnu/12/include/g++-v12/cmath **** 
 315:/usr/lib/gcc/x86_64-pc-linux-gnu/12/include/g++-v12/cmath ****   using ::ldexp;
 316:/usr/lib/gcc/x86_64-pc-linux-gnu/12/include/g++-v12/cmath **** 
 317:/usr/lib/gcc/x86_64-pc-linux-gnu/12/include/g++-v12/cmath **** #ifndef __CORRECT_ISO_CPP_MATH_H_PROTO
 318:/usr/lib/gcc/x86_64-pc-linux-gnu/12/include/g++-v12/cmath ****   inline _GLIBCXX_CONSTEXPR float
 319:/usr/lib/gcc/x86_64-pc-linux-gnu/12/include/g++-v12/cmath ****   ldexp(float __x, int __exp)
GAS LISTING /tmp/cce3XYli.s 			page 12


 320:/usr/lib/gcc/x86_64-pc-linux-gnu/12/include/g++-v12/cmath ****   { return __builtin_ldexpf(__x, __exp); }
 321:/usr/lib/gcc/x86_64-pc-linux-gnu/12/include/g++-v12/cmath **** 
 322:/usr/lib/gcc/x86_64-pc-linux-gnu/12/include/g++-v12/cmath ****   inline _GLIBCXX_CONSTEXPR long double
 323:/usr/lib/gcc/x86_64-pc-linux-gnu/12/include/g++-v12/cmath ****   ldexp(long double __x, int __exp)
 324:/usr/lib/gcc/x86_64-pc-linux-gnu/12/include/g++-v12/cmath ****   { return __builtin_ldexpl(__x, __exp); }
 325:/usr/lib/gcc/x86_64-pc-linux-gnu/12/include/g++-v12/cmath **** #endif
 326:/usr/lib/gcc/x86_64-pc-linux-gnu/12/include/g++-v12/cmath **** 
 327:/usr/lib/gcc/x86_64-pc-linux-gnu/12/include/g++-v12/cmath ****   template<typename _Tp>
 328:/usr/lib/gcc/x86_64-pc-linux-gnu/12/include/g++-v12/cmath ****     inline _GLIBCXX_CONSTEXPR
 329:/usr/lib/gcc/x86_64-pc-linux-gnu/12/include/g++-v12/cmath ****     typename __gnu_cxx::__enable_if<__is_integer<_Tp>::__value, 
 330:/usr/lib/gcc/x86_64-pc-linux-gnu/12/include/g++-v12/cmath ****                                     double>::__type
 331:/usr/lib/gcc/x86_64-pc-linux-gnu/12/include/g++-v12/cmath ****     ldexp(_Tp __x, int __exp)
 332:/usr/lib/gcc/x86_64-pc-linux-gnu/12/include/g++-v12/cmath ****     { return __builtin_ldexp(__x, __exp); }
 333:/usr/lib/gcc/x86_64-pc-linux-gnu/12/include/g++-v12/cmath **** 
 334:/usr/lib/gcc/x86_64-pc-linux-gnu/12/include/g++-v12/cmath ****   using ::log;
 335:/usr/lib/gcc/x86_64-pc-linux-gnu/12/include/g++-v12/cmath **** 
 336:/usr/lib/gcc/x86_64-pc-linux-gnu/12/include/g++-v12/cmath **** #ifndef __CORRECT_ISO_CPP_MATH_H_PROTO
 337:/usr/lib/gcc/x86_64-pc-linux-gnu/12/include/g++-v12/cmath ****   inline _GLIBCXX_CONSTEXPR float
 338:/usr/lib/gcc/x86_64-pc-linux-gnu/12/include/g++-v12/cmath ****   log(float __x)
 339:/usr/lib/gcc/x86_64-pc-linux-gnu/12/include/g++-v12/cmath ****   { return __builtin_logf(__x); }
 340:/usr/lib/gcc/x86_64-pc-linux-gnu/12/include/g++-v12/cmath **** 
 341:/usr/lib/gcc/x86_64-pc-linux-gnu/12/include/g++-v12/cmath ****   inline _GLIBCXX_CONSTEXPR long double
 342:/usr/lib/gcc/x86_64-pc-linux-gnu/12/include/g++-v12/cmath ****   log(long double __x)
 343:/usr/lib/gcc/x86_64-pc-linux-gnu/12/include/g++-v12/cmath ****   { return __builtin_logl(__x); }
 344:/usr/lib/gcc/x86_64-pc-linux-gnu/12/include/g++-v12/cmath **** #endif
 345:/usr/lib/gcc/x86_64-pc-linux-gnu/12/include/g++-v12/cmath **** 
 346:/usr/lib/gcc/x86_64-pc-linux-gnu/12/include/g++-v12/cmath ****   template<typename _Tp>
 347:/usr/lib/gcc/x86_64-pc-linux-gnu/12/include/g++-v12/cmath ****     inline _GLIBCXX_CONSTEXPR
 348:/usr/lib/gcc/x86_64-pc-linux-gnu/12/include/g++-v12/cmath ****     typename __gnu_cxx::__enable_if<__is_integer<_Tp>::__value, 
 349:/usr/lib/gcc/x86_64-pc-linux-gnu/12/include/g++-v12/cmath ****                                     double>::__type
 350:/usr/lib/gcc/x86_64-pc-linux-gnu/12/include/g++-v12/cmath ****     log(_Tp __x)
 351:/usr/lib/gcc/x86_64-pc-linux-gnu/12/include/g++-v12/cmath ****     { return __builtin_log(__x); }
 352:/usr/lib/gcc/x86_64-pc-linux-gnu/12/include/g++-v12/cmath **** 
 353:/usr/lib/gcc/x86_64-pc-linux-gnu/12/include/g++-v12/cmath ****   using ::log10;
 354:/usr/lib/gcc/x86_64-pc-linux-gnu/12/include/g++-v12/cmath **** 
 355:/usr/lib/gcc/x86_64-pc-linux-gnu/12/include/g++-v12/cmath **** #ifndef __CORRECT_ISO_CPP_MATH_H_PROTO
 356:/usr/lib/gcc/x86_64-pc-linux-gnu/12/include/g++-v12/cmath ****   inline _GLIBCXX_CONSTEXPR float
 357:/usr/lib/gcc/x86_64-pc-linux-gnu/12/include/g++-v12/cmath ****   log10(float __x)
 358:/usr/lib/gcc/x86_64-pc-linux-gnu/12/include/g++-v12/cmath ****   { return __builtin_log10f(__x); }
 359:/usr/lib/gcc/x86_64-pc-linux-gnu/12/include/g++-v12/cmath **** 
 360:/usr/lib/gcc/x86_64-pc-linux-gnu/12/include/g++-v12/cmath ****   inline _GLIBCXX_CONSTEXPR long double
 361:/usr/lib/gcc/x86_64-pc-linux-gnu/12/include/g++-v12/cmath ****   log10(long double __x)
 362:/usr/lib/gcc/x86_64-pc-linux-gnu/12/include/g++-v12/cmath ****   { return __builtin_log10l(__x); }
 363:/usr/lib/gcc/x86_64-pc-linux-gnu/12/include/g++-v12/cmath **** #endif
 364:/usr/lib/gcc/x86_64-pc-linux-gnu/12/include/g++-v12/cmath **** 
 365:/usr/lib/gcc/x86_64-pc-linux-gnu/12/include/g++-v12/cmath ****   template<typename _Tp>
 366:/usr/lib/gcc/x86_64-pc-linux-gnu/12/include/g++-v12/cmath ****     inline _GLIBCXX_CONSTEXPR
 367:/usr/lib/gcc/x86_64-pc-linux-gnu/12/include/g++-v12/cmath ****     typename __gnu_cxx::__enable_if<__is_integer<_Tp>::__value,
 368:/usr/lib/gcc/x86_64-pc-linux-gnu/12/include/g++-v12/cmath ****                                     double>::__type
 369:/usr/lib/gcc/x86_64-pc-linux-gnu/12/include/g++-v12/cmath ****     log10(_Tp __x)
 370:/usr/lib/gcc/x86_64-pc-linux-gnu/12/include/g++-v12/cmath ****     { return __builtin_log10(__x); }
 371:/usr/lib/gcc/x86_64-pc-linux-gnu/12/include/g++-v12/cmath **** 
 372:/usr/lib/gcc/x86_64-pc-linux-gnu/12/include/g++-v12/cmath ****   using ::modf;
 373:/usr/lib/gcc/x86_64-pc-linux-gnu/12/include/g++-v12/cmath **** 
 374:/usr/lib/gcc/x86_64-pc-linux-gnu/12/include/g++-v12/cmath **** #ifndef __CORRECT_ISO_CPP_MATH_H_PROTO
 375:/usr/lib/gcc/x86_64-pc-linux-gnu/12/include/g++-v12/cmath ****   inline float
 376:/usr/lib/gcc/x86_64-pc-linux-gnu/12/include/g++-v12/cmath ****   modf(float __x, float* __iptr)
GAS LISTING /tmp/cce3XYli.s 			page 13


 377:/usr/lib/gcc/x86_64-pc-linux-gnu/12/include/g++-v12/cmath ****   { return __builtin_modff(__x, __iptr); }
 378:/usr/lib/gcc/x86_64-pc-linux-gnu/12/include/g++-v12/cmath **** 
 379:/usr/lib/gcc/x86_64-pc-linux-gnu/12/include/g++-v12/cmath ****   inline long double
 380:/usr/lib/gcc/x86_64-pc-linux-gnu/12/include/g++-v12/cmath ****   modf(long double __x, long double* __iptr)
 381:/usr/lib/gcc/x86_64-pc-linux-gnu/12/include/g++-v12/cmath ****   { return __builtin_modfl(__x, __iptr); }
 382:/usr/lib/gcc/x86_64-pc-linux-gnu/12/include/g++-v12/cmath **** #endif
 383:/usr/lib/gcc/x86_64-pc-linux-gnu/12/include/g++-v12/cmath **** 
 384:/usr/lib/gcc/x86_64-pc-linux-gnu/12/include/g++-v12/cmath ****   using ::pow;
 385:/usr/lib/gcc/x86_64-pc-linux-gnu/12/include/g++-v12/cmath **** 
 386:/usr/lib/gcc/x86_64-pc-linux-gnu/12/include/g++-v12/cmath **** #ifndef __CORRECT_ISO_CPP_MATH_H_PROTO
 387:/usr/lib/gcc/x86_64-pc-linux-gnu/12/include/g++-v12/cmath ****   inline _GLIBCXX_CONSTEXPR float
 388:/usr/lib/gcc/x86_64-pc-linux-gnu/12/include/g++-v12/cmath ****   pow(float __x, float __y)
 389:/usr/lib/gcc/x86_64-pc-linux-gnu/12/include/g++-v12/cmath ****   { return __builtin_powf(__x, __y); }
 390:/usr/lib/gcc/x86_64-pc-linux-gnu/12/include/g++-v12/cmath **** 
 391:/usr/lib/gcc/x86_64-pc-linux-gnu/12/include/g++-v12/cmath ****   inline _GLIBCXX_CONSTEXPR long double
 392:/usr/lib/gcc/x86_64-pc-linux-gnu/12/include/g++-v12/cmath ****   pow(long double __x, long double __y)
 393:/usr/lib/gcc/x86_64-pc-linux-gnu/12/include/g++-v12/cmath ****   { return __builtin_powl(__x, __y); }
 394:/usr/lib/gcc/x86_64-pc-linux-gnu/12/include/g++-v12/cmath **** 
 395:/usr/lib/gcc/x86_64-pc-linux-gnu/12/include/g++-v12/cmath **** #if __cplusplus < 201103L
 396:/usr/lib/gcc/x86_64-pc-linux-gnu/12/include/g++-v12/cmath ****   // _GLIBCXX_RESOLVE_LIB_DEFECTS
 397:/usr/lib/gcc/x86_64-pc-linux-gnu/12/include/g++-v12/cmath ****   // DR 550. What should the return type of pow(float,int) be?
 398:/usr/lib/gcc/x86_64-pc-linux-gnu/12/include/g++-v12/cmath ****   inline double
 399:/usr/lib/gcc/x86_64-pc-linux-gnu/12/include/g++-v12/cmath ****   pow(double __x, int __i)
 400:/usr/lib/gcc/x86_64-pc-linux-gnu/12/include/g++-v12/cmath ****   { return __builtin_powi(__x, __i); }
 401:/usr/lib/gcc/x86_64-pc-linux-gnu/12/include/g++-v12/cmath **** 
 402:/usr/lib/gcc/x86_64-pc-linux-gnu/12/include/g++-v12/cmath ****   inline float
 403:/usr/lib/gcc/x86_64-pc-linux-gnu/12/include/g++-v12/cmath ****   pow(float __x, int __n)
 404:/usr/lib/gcc/x86_64-pc-linux-gnu/12/include/g++-v12/cmath ****   { return __builtin_powif(__x, __n); }
 405:/usr/lib/gcc/x86_64-pc-linux-gnu/12/include/g++-v12/cmath **** 
 406:/usr/lib/gcc/x86_64-pc-linux-gnu/12/include/g++-v12/cmath ****   inline long double
 407:/usr/lib/gcc/x86_64-pc-linux-gnu/12/include/g++-v12/cmath ****   pow(long double __x, int __n)
 408:/usr/lib/gcc/x86_64-pc-linux-gnu/12/include/g++-v12/cmath ****   { return __builtin_powil(__x, __n); }
 409:/usr/lib/gcc/x86_64-pc-linux-gnu/12/include/g++-v12/cmath **** #endif
 410:/usr/lib/gcc/x86_64-pc-linux-gnu/12/include/g++-v12/cmath **** #endif
 411:/usr/lib/gcc/x86_64-pc-linux-gnu/12/include/g++-v12/cmath **** 
 412:/usr/lib/gcc/x86_64-pc-linux-gnu/12/include/g++-v12/cmath ****   template<typename _Tp, typename _Up>
 413:/usr/lib/gcc/x86_64-pc-linux-gnu/12/include/g++-v12/cmath ****     inline _GLIBCXX_CONSTEXPR
 414:/usr/lib/gcc/x86_64-pc-linux-gnu/12/include/g++-v12/cmath ****     typename __gnu_cxx::__promote_2<_Tp, _Up>::__type
 415:/usr/lib/gcc/x86_64-pc-linux-gnu/12/include/g++-v12/cmath ****     pow(_Tp __x, _Up __y)
 416:/usr/lib/gcc/x86_64-pc-linux-gnu/12/include/g++-v12/cmath ****     {
 417:/usr/lib/gcc/x86_64-pc-linux-gnu/12/include/g++-v12/cmath ****       typedef typename __gnu_cxx::__promote_2<_Tp, _Up>::__type __type;
 418:/usr/lib/gcc/x86_64-pc-linux-gnu/12/include/g++-v12/cmath ****       return pow(__type(__x), __type(__y));
 419:/usr/lib/gcc/x86_64-pc-linux-gnu/12/include/g++-v12/cmath ****     }
 420:/usr/lib/gcc/x86_64-pc-linux-gnu/12/include/g++-v12/cmath **** 
 421:/usr/lib/gcc/x86_64-pc-linux-gnu/12/include/g++-v12/cmath ****   using ::sin;
 422:/usr/lib/gcc/x86_64-pc-linux-gnu/12/include/g++-v12/cmath **** 
 423:/usr/lib/gcc/x86_64-pc-linux-gnu/12/include/g++-v12/cmath **** #ifndef __CORRECT_ISO_CPP_MATH_H_PROTO
 424:/usr/lib/gcc/x86_64-pc-linux-gnu/12/include/g++-v12/cmath ****   inline _GLIBCXX_CONSTEXPR float
 425:/usr/lib/gcc/x86_64-pc-linux-gnu/12/include/g++-v12/cmath ****   sin(float __x)
 194              		.loc 2 425 3 is_stmt 1 view .LVU60
 195              	.LBB506:
 426:/usr/lib/gcc/x86_64-pc-linux-gnu/12/include/g++-v12/cmath ****   { return __builtin_sinf(__x); }
 196              		.loc 2 426 5 view .LVU61
 197              		.loc 2 426 5 is_stmt 0 view .LVU62
 198              	.LBE506:
 199              	.LBE505:
 200              		.loc 1 75 27 view .LVU63
GAS LISTING /tmp/cce3XYli.s 			page 14


 201 0154 0FB74424 		movzwl	28(%rsp), %eax
 201      1C
 202              		.loc 1 75 34 view .LVU64
 203 0159 660FEFC9 		pxor	%xmm1, %xmm1
 204 015d F30F2AC8 		cvtsi2ssl	%eax, %xmm1
 205              		.loc 1 75 66 view .LVU65
 206 0161 0F28D0   		movaps	%xmm0, %xmm2
 207 0164 F30F5954 		mulss	60(%rsp), %xmm2
 207      243C
 208              		.loc 1 75 34 view .LVU66
 209 016a F30F58CA 		addss	%xmm2, %xmm1
 210              		.loc 1 75 25 view .LVU67
 211 016e F3440F2C 		cvttss2sil	%xmm1, %r13d
 211      E9
 212              	.LVL19:
  76:main.cpp      ****                 coord_y = root_y + (exp_dist + exp_rate * angle) * cos(angle);
 213              		.loc 1 76 17 is_stmt 1 view .LVU68
 214              	.LBB507:
 215              	.LBI507:
 184:/usr/lib/gcc/x86_64-pc-linux-gnu/12/include/g++-v12/cmath ****   { return __builtin_cosf(__x); }
 216              		.loc 2 184 3 view .LVU69
 217              	.LBB508:
 185:/usr/lib/gcc/x86_64-pc-linux-gnu/12/include/g++-v12/cmath **** 
 218              		.loc 2 185 5 view .LVU70
 185:/usr/lib/gcc/x86_64-pc-linux-gnu/12/include/g++-v12/cmath **** 
 219              		.loc 2 185 5 is_stmt 0 view .LVU71
 220              	.LBE508:
 221              	.LBE507:
 222              		.loc 1 76 27 view .LVU72
 223 0173 0FB74424 		movzwl	30(%rsp), %eax
 223      1E
 224              		.loc 1 76 34 view .LVU73
 225 0178 660FEFC9 		pxor	%xmm1, %xmm1
 226 017c F30F2AC8 		cvtsi2ssl	%eax, %xmm1
 227              		.loc 1 76 66 view .LVU74
 228 0180 F30F5944 		mulss	56(%rsp), %xmm0
 228      2438
 229              		.loc 1 76 34 view .LVU75
 230 0186 F30F58C1 		addss	%xmm1, %xmm0
 231              		.loc 1 76 25 view .LVU76
 232 018a F30F2CC0 		cvttss2sil	%xmm0, %eax
 233              	.LVL20:
 234              		.loc 1 76 25 view .LVU77
 235 018e E9E80000 		jmp	.L5
 235      00
 236              	.LVL21:
 237              	.L2:
  77:main.cpp      ****             }
  78:main.cpp      ****             if ((coord_x > 0) && (coord_y > 0) &&
  79:main.cpp      ****                (coord_x < sc->img_w) && (coord_y < sc->img_h)) {
  80:main.cpp      ****                 *(sp_out + i*2) = coord_x;
  81:main.cpp      ****                 *(sp_out + i*2+1) = coord_y;
  82:main.cpp      ****                 i++;
  83:main.cpp      ****             }
  84:main.cpp      ****         }
  85:main.cpp      ****         j++;
 238              		.loc 1 85 9 is_stmt 1 view .LVU78
GAS LISTING /tmp/cce3XYli.s 			page 15


 239              		.loc 1 85 10 is_stmt 0 view .LVU79
 240 0193 83C301   		addl	$1, %ebx
 241              	.LVL22:
  67:main.cpp      ****         rndf = rand()%10 / 10.0;
 242              		.loc 1 67 29 is_stmt 1 view .LVU80
 243 0196 664139EC 		cmpw	%bp, %r12w
 244 019a 0F832801 		jnb	.L1
 244      0000
  67:main.cpp      ****         rndf = rand()%10 / 10.0;
 245              		.loc 1 67 29 is_stmt 0 view .LVU81
 246 01a0 6683FB63 		cmpw	$99, %bx
 247 01a4 0F871E01 		ja	.L1
 247      0000
 248              	.LVL23:
 249              	.L6:
  68:main.cpp      ****         if (rndf < 0.95f) {
 250              		.loc 1 68 9 is_stmt 1 view .LVU82
  68:main.cpp      ****         if (rndf < 0.95f) {
 251              		.loc 1 68 20 is_stmt 0 view .LVU83
 252 01aa E8000000 		call	rand@PLT
 252      00
 253              	.LVL24:
  69:main.cpp      ****             angle = angle_mult * j;
 254              		.loc 1 69 9 is_stmt 1 view .LVU84
  68:main.cpp      ****         if (rndf < 0.95f) {
 255              		.loc 1 68 22 is_stmt 0 view .LVU85
 256 01af 4863D0   		movslq	%eax, %rdx
 257 01b2 4869D267 		imulq	$1717986919, %rdx, %rdx
 257      666666
 258 01b9 48C1FA22 		sarq	$34, %rdx
 259 01bd 89C1     		movl	%eax, %ecx
 260 01bf C1F91F   		sarl	$31, %ecx
 261 01c2 29CA     		subl	%ecx, %edx
 262 01c4 8D1492   		leal	(%rdx,%rdx,4), %edx
 263 01c7 01D2     		addl	%edx, %edx
 264 01c9 29D0     		subl	%edx, %eax
 265              	.LVL25:
  68:main.cpp      ****         if (rndf < 0.95f) {
 266              		.loc 1 68 26 view .LVU86
 267 01cb 660FEFC0 		pxor	%xmm0, %xmm0
 268 01cf F20F2AC0 		cvtsi2sdl	%eax, %xmm0
 269 01d3 F20F5E05 		divsd	.LC2(%rip), %xmm0
 269      00000000 
  68:main.cpp      ****         if (rndf < 0.95f) {
 270              		.loc 1 68 14 view .LVU87
 271 01db F20F5AC0 		cvtsd2ss	%xmm0, %xmm0
  69:main.cpp      ****             angle = angle_mult * j;
 272              		.loc 1 69 9 view .LVU88
 273 01df F30F1025 		movss	.LC3(%rip), %xmm4
 273      00000000 
 274 01e7 0F2FE0   		comiss	%xmm0, %xmm4
 275 01ea 76A7     		jbe	.L2
  70:main.cpp      ****             if (direction) {
 276              		.loc 1 70 13 is_stmt 1 view .LVU89
  70:main.cpp      ****             if (direction) {
 277              		.loc 1 70 34 is_stmt 0 view .LVU90
 278 01ec 0FB7C3   		movzwl	%bx, %eax
GAS LISTING /tmp/cce3XYli.s 			page 16


  70:main.cpp      ****             if (direction) {
 279              		.loc 1 70 32 view .LVU91
 280 01ef 660FEFC0 		pxor	%xmm0, %xmm0
 281 01f3 F30F2AC0 		cvtsi2ssl	%eax, %xmm0
  70:main.cpp      ****             if (direction) {
 282              		.loc 1 70 19 view .LVU92
 283 01f7 0F28D8   		movaps	%xmm0, %xmm3
 284 01fa F30F595C 		mulss	16(%rsp), %xmm3
 284      2410
 285 0200 F30F115C 		movss	%xmm3, 8(%rsp)
 285      2408
 286              	.LVL26:
  71:main.cpp      ****                 coord_x = root_x + (exp_dist + exp_rate * angle) * cos(angle);
 287              		.loc 1 71 13 is_stmt 1 view .LVU93
 288 0206 4584FF   		testb	%r15b, %r15b
 289 0209 0F8412FF 		je	.L4
 289      FFFF
  72:main.cpp      ****                 coord_y = root_y + (exp_dist + exp_rate * angle) * sin(angle);
 290              		.loc 1 72 17 view .LVU94
  72:main.cpp      ****                 coord_y = root_y + (exp_dist + exp_rate * angle) * sin(angle);
 291              		.loc 1 72 57 is_stmt 0 view .LVU95
 292 020f 660FEFC0 		pxor	%xmm0, %xmm0
 293 0213 F30F2A44 		cvtsi2ssl	20(%rsp), %xmm0
 293      2414
 294 0219 F30F59C3 		mulss	%xmm3, %xmm0
  72:main.cpp      ****                 coord_y = root_y + (exp_dist + exp_rate * angle) * sin(angle);
 295              		.loc 1 72 46 view .LVU96
 296 021d 660FEFC9 		pxor	%xmm1, %xmm1
 297 0221 F30F2A4C 		cvtsi2ssl	24(%rsp), %xmm1
 297      2418
 298 0227 F30F58C1 		addss	%xmm1, %xmm0
 299 022b F30F1144 		movss	%xmm0, 12(%rsp)
 299      240C
 300              	.LVL27:
 301              	.LBB509:
 302              	.LBI509:
 184:/usr/lib/gcc/x86_64-pc-linux-gnu/12/include/g++-v12/cmath ****   { return __builtin_cosf(__x); }
 303              		.loc 2 184 3 is_stmt 1 view .LVU97
 304              	.LBB510:
 185:/usr/lib/gcc/x86_64-pc-linux-gnu/12/include/g++-v12/cmath **** 
 305              		.loc 2 185 5 view .LVU98
 185:/usr/lib/gcc/x86_64-pc-linux-gnu/12/include/g++-v12/cmath **** 
 306              		.loc 2 185 26 is_stmt 0 view .LVU99
 307 0231 0F28C3   		movaps	%xmm3, %xmm0
 308 0234 E8000000 		call	cosf@PLT
 308      00
 309              	.LVL28:
 185:/usr/lib/gcc/x86_64-pc-linux-gnu/12/include/g++-v12/cmath **** 
 310              		.loc 2 185 26 view .LVU100
 311              	.LBE510:
 312              	.LBE509:
  72:main.cpp      ****                 coord_y = root_y + (exp_dist + exp_rate * angle) * sin(angle);
 313              		.loc 1 72 27 view .LVU101
 314 0239 0FB74424 		movzwl	28(%rsp), %eax
 314      1C
  72:main.cpp      ****                 coord_y = root_y + (exp_dist + exp_rate * angle) * sin(angle);
 315              		.loc 1 72 34 view .LVU102
GAS LISTING /tmp/cce3XYli.s 			page 17


 316 023e 660FEFC9 		pxor	%xmm1, %xmm1
 317 0242 F30F2AC8 		cvtsi2ssl	%eax, %xmm1
  72:main.cpp      ****                 coord_y = root_y + (exp_dist + exp_rate * angle) * sin(angle);
 318              		.loc 1 72 66 view .LVU103
 319 0246 F30F5944 		mulss	12(%rsp), %xmm0
 319      240C
  72:main.cpp      ****                 coord_y = root_y + (exp_dist + exp_rate * angle) * sin(angle);
 320              		.loc 1 72 34 view .LVU104
 321 024c F30F58C8 		addss	%xmm0, %xmm1
  72:main.cpp      ****                 coord_y = root_y + (exp_dist + exp_rate * angle) * sin(angle);
 322              		.loc 1 72 25 view .LVU105
 323 0250 F3440F2C 		cvttss2sil	%xmm1, %r13d
 323      E9
 324              	.LVL29:
  73:main.cpp      ****             } else {
 325              		.loc 1 73 17 is_stmt 1 view .LVU106
 326              	.LBB511:
 327              	.LBI511:
 425:/usr/lib/gcc/x86_64-pc-linux-gnu/12/include/g++-v12/cmath ****   { return __builtin_sinf(__x); }
 328              		.loc 2 425 3 view .LVU107
 329              	.LBB512:
 330              		.loc 2 426 5 view .LVU108
 331              		.loc 2 426 26 is_stmt 0 view .LVU109
 332 0255 F30F1044 		movss	8(%rsp), %xmm0
 332      2408
 333 025b E8000000 		call	sinf@PLT
 333      00
 334              	.LVL30:
 335              		.loc 2 426 26 view .LVU110
 336              	.LBE512:
 337              	.LBE511:
  73:main.cpp      ****             } else {
 338              		.loc 1 73 27 view .LVU111
 339 0260 0FB74424 		movzwl	30(%rsp), %eax
 339      1E
  73:main.cpp      ****             } else {
 340              		.loc 1 73 34 view .LVU112
 341 0265 660FEFC9 		pxor	%xmm1, %xmm1
 342 0269 F30F2AC8 		cvtsi2ssl	%eax, %xmm1
  73:main.cpp      ****             } else {
 343              		.loc 1 73 66 view .LVU113
 344 026d F30F5944 		mulss	12(%rsp), %xmm0
 344      240C
  73:main.cpp      ****             } else {
 345              		.loc 1 73 34 view .LVU114
 346 0273 F30F58C8 		addss	%xmm0, %xmm1
  73:main.cpp      ****             } else {
 347              		.loc 1 73 25 view .LVU115
 348 0277 F30F2CC1 		cvttss2sil	%xmm1, %eax
 349              	.LVL31:
 350              	.L5:
  78:main.cpp      ****                (coord_x < sc->img_w) && (coord_y < sc->img_h)) {
 351              		.loc 1 78 13 is_stmt 1 view .LVU116
 352 027b 4585ED   		testl	%r13d, %r13d
 353 027e 0F8E0FFF 		jle	.L2
 353      FFFF
  78:main.cpp      ****                (coord_x < sc->img_w) && (coord_y < sc->img_h)) {
GAS LISTING /tmp/cce3XYli.s 			page 18


 354              		.loc 1 78 13 is_stmt 0 view .LVU117
 355 0284 85C0     		testl	%eax, %eax
 356 0286 0F8E07FF 		jle	.L2
 356      FFFF
  79:main.cpp      ****                 *(sp_out + i*2) = coord_x;
 357              		.loc 1 79 31 discriminator 1 view .LVU118
 358 028c 410FB716 		movzwl	(%r14), %edx
  78:main.cpp      ****                (coord_x < sc->img_w) && (coord_y < sc->img_h)) {
 359              		.loc 1 78 48 discriminator 1 view .LVU119
 360 0290 4439EA   		cmpl	%r13d, %edx
 361 0293 0F8EFAFE 		jle	.L2
 361      FFFF
  79:main.cpp      ****                 *(sp_out + i*2) = coord_x;
 362              		.loc 1 79 56 view .LVU120
 363 0299 410FB756 		movzwl	2(%r14), %edx
 363      02
  79:main.cpp      ****                 *(sp_out + i*2) = coord_x;
 364              		.loc 1 79 38 view .LVU121
 365 029e 39C2     		cmpl	%eax, %edx
 366 02a0 0F8EEDFE 		jle	.L2
 366      FFFF
  80:main.cpp      ****                 *(sp_out + i*2+1) = coord_y;
 367              		.loc 1 80 17 is_stmt 1 view .LVU122
  80:main.cpp      ****                 *(sp_out + i*2+1) = coord_y;
 368              		.loc 1 80 29 is_stmt 0 view .LVU123
 369 02a6 4B8D1424 		leaq	(%r12,%r12), %rdx
 370 02aa 81E2FEFF 		andl	$131070, %edx
 370      0100
  80:main.cpp      ****                 *(sp_out + i*2+1) = coord_y;
 371              		.loc 1 80 33 view .LVU124
 372 02b0 488B7424 		movq	48(%rsp), %rsi
 372      30
 373 02b5 6644892C 		movw	%r13w, (%rsi,%rdx,2)
 373      56
  81:main.cpp      ****                 i++;
 374              		.loc 1 81 17 is_stmt 1 view .LVU125
  81:main.cpp      ****                 i++;
 375              		.loc 1 81 35 is_stmt 0 view .LVU126
 376 02ba 66894456 		movw	%ax, 2(%rsi,%rdx,2)
 376      02
  82:main.cpp      ****             }
 377              		.loc 1 82 17 is_stmt 1 view .LVU127
  82:main.cpp      ****             }
 378              		.loc 1 82 18 is_stmt 0 view .LVU128
 379 02bf 4183C401 		addl	$1, %r12d
 380              	.LVL32:
  82:main.cpp      ****             }
 381              		.loc 1 82 18 view .LVU129
 382 02c3 E9CBFEFF 		jmp	.L2
 382      FF
 383              	.LVL33:
 384              	.L1:
  86:main.cpp      ****     }
  87:main.cpp      **** 
  88:main.cpp      ****     return i;
  89:main.cpp      **** }
 385              		.loc 1 89 1 view .LVU130
GAS LISTING /tmp/cce3XYli.s 			page 19


 386 02c8 4489E0   		movl	%r12d, %eax
 387 02cb 4883C448 		addq	$72, %rsp
 388              		.cfi_def_cfa_offset 56
 389 02cf 5B       		popq	%rbx
 390              		.cfi_def_cfa_offset 48
 391              	.LVL34:
 392              		.loc 1 89 1 view .LVU131
 393 02d0 5D       		popq	%rbp
 394              		.cfi_def_cfa_offset 40
 395              	.LVL35:
 396              		.loc 1 89 1 view .LVU132
 397 02d1 415C     		popq	%r12
 398              		.cfi_def_cfa_offset 32
 399              	.LVL36:
 400              		.loc 1 89 1 view .LVU133
 401 02d3 415D     		popq	%r13
 402              		.cfi_def_cfa_offset 24
 403 02d5 415E     		popq	%r14
 404              		.cfi_def_cfa_offset 16
 405              	.LVL37:
 406              		.loc 1 89 1 view .LVU134
 407 02d7 415F     		popq	%r15
 408              		.cfi_def_cfa_offset 8
 409              	.LVL38:
 410              		.loc 1 89 1 view .LVU135
 411 02d9 C3       		ret
 412              		.cfi_endproc
 413              	.LFE4092:
 414              		.size	_Z6spiralPK11spiral_confPt, .-_Z6spiralPK11spiral_confPt
 415              		.section	.rodata.str1.1,"aMS",@progbits,1
 416              	.LC4:
 417 0000 55736167 		.string	"Usage:\n"
 417      653A0A00 
 418              		.section	.rodata.str1.8,"aMS",@progbits,1
 419              		.align 8
 420              	.LC5:
 421 0000 20726164 		.string	" radar_img_create  -w width  -h height [-r radius] [-s seed]\n"
 421      61725F69 
 421      6D675F63 
 421      72656174 
 421      6520202D 
 422              		.text
 423              		.globl	_Z10show_usagev
 424              		.type	_Z10show_usagev, @function
 425              	_Z10show_usagev:
 426              	.LFB4093:
  90:main.cpp      **** 
  91:main.cpp      **** void show_usage(void)
  92:main.cpp      **** {
 427              		.loc 1 92 1 is_stmt 1 view -0
 428              		.cfi_startproc
 429 02da 50       		pushq	%rax
 430              		.cfi_def_cfa_offset 16
 431 02db 58       		popq	%rax
 432              		.cfi_def_cfa_offset 8
 433 02dc 4883EC08 		subq	$8, %rsp
 434              		.cfi_def_cfa_offset 16
GAS LISTING /tmp/cce3XYli.s 			page 20


  93:main.cpp      ****     fprintf(stdout, "Usage:\n");
 435              		.loc 1 93 5 view .LVU137
 436              	.LVL39:
 437              	.LBB513:
 438              	.LBI513:
 439              		.file 3 "/usr/include/bits/stdio2.h"
   1:/usr/include/bits/stdio2.h **** /* Checking macros for stdio functions.
   2:/usr/include/bits/stdio2.h ****    Copyright (C) 2004-2022 Free Software Foundation, Inc.
   3:/usr/include/bits/stdio2.h ****    This file is part of the GNU C Library.
   4:/usr/include/bits/stdio2.h **** 
   5:/usr/include/bits/stdio2.h ****    The GNU C Library is free software; you can redistribute it and/or
   6:/usr/include/bits/stdio2.h ****    modify it under the terms of the GNU Lesser General Public
   7:/usr/include/bits/stdio2.h ****    License as published by the Free Software Foundation; either
   8:/usr/include/bits/stdio2.h ****    version 2.1 of the License, or (at your option) any later version.
   9:/usr/include/bits/stdio2.h **** 
  10:/usr/include/bits/stdio2.h ****    The GNU C Library is distributed in the hope that it will be useful,
  11:/usr/include/bits/stdio2.h ****    but WITHOUT ANY WARRANTY; without even the implied warranty of
  12:/usr/include/bits/stdio2.h ****    MERCHANTABILITY or FITNESS FOR A PARTICULAR PURPOSE.  See the GNU
  13:/usr/include/bits/stdio2.h ****    Lesser General Public License for more details.
  14:/usr/include/bits/stdio2.h **** 
  15:/usr/include/bits/stdio2.h ****    You should have received a copy of the GNU Lesser General Public
  16:/usr/include/bits/stdio2.h ****    License along with the GNU C Library; if not, see
  17:/usr/include/bits/stdio2.h ****    <https://www.gnu.org/licenses/>.  */
  18:/usr/include/bits/stdio2.h **** 
  19:/usr/include/bits/stdio2.h **** #ifndef _BITS_STDIO2_H
  20:/usr/include/bits/stdio2.h **** #define _BITS_STDIO2_H 1
  21:/usr/include/bits/stdio2.h **** 
  22:/usr/include/bits/stdio2.h **** #ifndef _STDIO_H
  23:/usr/include/bits/stdio2.h **** # error "Never include <bits/stdio2.h> directly; use <stdio.h> instead."
  24:/usr/include/bits/stdio2.h **** #endif
  25:/usr/include/bits/stdio2.h **** 
  26:/usr/include/bits/stdio2.h **** #ifdef __va_arg_pack
  27:/usr/include/bits/stdio2.h **** __fortify_function int
  28:/usr/include/bits/stdio2.h **** __NTH (sprintf (char *__restrict __s, const char *__restrict __fmt, ...))
  29:/usr/include/bits/stdio2.h **** {
  30:/usr/include/bits/stdio2.h ****   return __builtin___sprintf_chk (__s, __USE_FORTIFY_LEVEL - 1,
  31:/usr/include/bits/stdio2.h **** 				  __glibc_objsize (__s), __fmt,
  32:/usr/include/bits/stdio2.h **** 				  __va_arg_pack ());
  33:/usr/include/bits/stdio2.h **** }
  34:/usr/include/bits/stdio2.h **** #elif !defined __cplusplus
  35:/usr/include/bits/stdio2.h **** # define sprintf(str, ...) \
  36:/usr/include/bits/stdio2.h ****   __builtin___sprintf_chk (str, __USE_FORTIFY_LEVEL - 1,		      \
  37:/usr/include/bits/stdio2.h **** 			   __glibc_objsize (str), __VA_ARGS__)
  38:/usr/include/bits/stdio2.h **** #endif
  39:/usr/include/bits/stdio2.h **** 
  40:/usr/include/bits/stdio2.h **** __fortify_function int
  41:/usr/include/bits/stdio2.h **** __NTH (vsprintf (char *__restrict __s, const char *__restrict __fmt,
  42:/usr/include/bits/stdio2.h **** 		 __gnuc_va_list __ap))
  43:/usr/include/bits/stdio2.h **** {
  44:/usr/include/bits/stdio2.h ****   return __builtin___vsprintf_chk (__s, __USE_FORTIFY_LEVEL - 1,
  45:/usr/include/bits/stdio2.h **** 				   __glibc_objsize (__s), __fmt, __ap);
  46:/usr/include/bits/stdio2.h **** }
  47:/usr/include/bits/stdio2.h **** 
  48:/usr/include/bits/stdio2.h **** #if defined __USE_ISOC99 || defined __USE_UNIX98
  49:/usr/include/bits/stdio2.h **** # ifdef __va_arg_pack
  50:/usr/include/bits/stdio2.h **** __fortify_function int
  51:/usr/include/bits/stdio2.h **** __NTH (snprintf (char *__restrict __s, size_t __n,
GAS LISTING /tmp/cce3XYli.s 			page 21


  52:/usr/include/bits/stdio2.h **** 		 const char *__restrict __fmt, ...))
  53:/usr/include/bits/stdio2.h **** {
  54:/usr/include/bits/stdio2.h ****   return __builtin___snprintf_chk (__s, __n, __USE_FORTIFY_LEVEL - 1,
  55:/usr/include/bits/stdio2.h **** 				   __glibc_objsize (__s), __fmt,
  56:/usr/include/bits/stdio2.h **** 				   __va_arg_pack ());
  57:/usr/include/bits/stdio2.h **** }
  58:/usr/include/bits/stdio2.h **** # elif !defined __cplusplus
  59:/usr/include/bits/stdio2.h **** #  define snprintf(str, len, ...) \
  60:/usr/include/bits/stdio2.h ****   __builtin___snprintf_chk (str, len, __USE_FORTIFY_LEVEL - 1,		      \
  61:/usr/include/bits/stdio2.h **** 			    __glibc_objsize (str), __VA_ARGS__)
  62:/usr/include/bits/stdio2.h **** # endif
  63:/usr/include/bits/stdio2.h **** 
  64:/usr/include/bits/stdio2.h **** __fortify_function int
  65:/usr/include/bits/stdio2.h **** __NTH (vsnprintf (char *__restrict __s, size_t __n,
  66:/usr/include/bits/stdio2.h **** 		  const char *__restrict __fmt, __gnuc_va_list __ap))
  67:/usr/include/bits/stdio2.h **** {
  68:/usr/include/bits/stdio2.h ****   return __builtin___vsnprintf_chk (__s, __n, __USE_FORTIFY_LEVEL - 1,
  69:/usr/include/bits/stdio2.h **** 				    __glibc_objsize (__s), __fmt, __ap);
  70:/usr/include/bits/stdio2.h **** }
  71:/usr/include/bits/stdio2.h **** 
  72:/usr/include/bits/stdio2.h **** #endif
  73:/usr/include/bits/stdio2.h **** 
  74:/usr/include/bits/stdio2.h **** #if __USE_FORTIFY_LEVEL > 1
  75:/usr/include/bits/stdio2.h **** # ifdef __va_arg_pack
  76:/usr/include/bits/stdio2.h **** __fortify_function int
  77:/usr/include/bits/stdio2.h **** fprintf (FILE *__restrict __stream, const char *__restrict __fmt, ...)
 440              		.loc 3 77 1 view .LVU138
 441              	.LBB514:
  78:/usr/include/bits/stdio2.h **** {
  79:/usr/include/bits/stdio2.h ****   return __fprintf_chk (__stream, __USE_FORTIFY_LEVEL - 1, __fmt,
 442              		.loc 3 79 3 view .LVU139
 443              		.loc 3 79 24 is_stmt 0 view .LVU140
 444 02e0 488B0D00 		movq	stdout(%rip), %rcx
 444      000000
 445 02e7 BA070000 		movl	$7, %edx
 445      00
 446 02ec BE010000 		movl	$1, %esi
 446      00
 447 02f1 488D3D00 		leaq	.LC4(%rip), %rdi
 447      000000
 448 02f8 E8000000 		call	fwrite@PLT
 448      00
 449              	.LVL40:
 450              		.loc 3 79 24 view .LVU141
 451              	.LBE514:
 452              	.LBE513:
  94:main.cpp      ****     fprintf(stdout, " radar_img_create  -w width  -h height [-r radius] [-s seed]\n");
 453              		.loc 1 94 5 is_stmt 1 view .LVU142
 454              	.LBB515:
 455              	.LBI515:
  77:/usr/include/bits/stdio2.h **** {
 456              		.loc 3 77 1 view .LVU143
 457              	.LBB516:
 458              		.loc 3 79 3 view .LVU144
 459              		.loc 3 79 24 is_stmt 0 view .LVU145
 460 02fd 488B0D00 		movq	stdout(%rip), %rcx
 460      000000
GAS LISTING /tmp/cce3XYli.s 			page 22


 461 0304 BA3D0000 		movl	$61, %edx
 461      00
 462 0309 BE010000 		movl	$1, %esi
 462      00
 463 030e 488D3D00 		leaq	.LC5(%rip), %rdi
 463      000000
 464 0315 E8000000 		call	fwrite@PLT
 464      00
 465              	.LVL41:
 466              		.loc 3 79 24 view .LVU146
 467              	.LBE516:
 468              	.LBE515:
  95:main.cpp      ****     exit(EXIT_FAILURE);
 469              		.loc 1 95 5 is_stmt 1 view .LVU147
 470              		.loc 1 95 9 is_stmt 0 view .LVU148
 471 031a BF010000 		movl	$1, %edi
 471      00
 472 031f E8000000 		call	exit@PLT
 472      00
 473              	.LVL42:
 474              		.cfi_endproc
 475              	.LFE4093:
 476              		.size	_Z10show_usagev, .-_Z10show_usagev
 477              		.section	.rodata.str1.8
 478 003e 0000     		.align 8
 479              	.LC6:
 480 0040 72616461 		.string	"radar_img_create %d.%d\nbuild %d commit %d\n"
 480      725F696D 
 480      675F6372 
 480      65617465 
 480      2025642E 
 481              		.text
 482              		.globl	_Z12show_versionv
 483              		.type	_Z12show_versionv, @function
 484              	_Z12show_versionv:
 485              	.LFB4094:
  96:main.cpp      **** }
  97:main.cpp      **** 
  98:main.cpp      **** void show_version(void)
  99:main.cpp      **** {
 486              		.loc 1 99 1 is_stmt 1 view -0
 487              		.cfi_startproc
 488 0324 4883EC10 		subq	$16, %rsp
 489              		.cfi_def_cfa_offset 24
 100:main.cpp      ****     fprintf(stdout, "radar_img_create %d.%d\nbuild %d commit %d\n", VER_MAJOR, VER_MINOR, BUILD, CO
 490              		.loc 1 100 5 view .LVU150
 491              	.LVL43:
 492              	.LBB517:
 493              	.LBI517:
  77:/usr/include/bits/stdio2.h **** {
 494              		.loc 3 77 1 view .LVU151
 495              	.LBB518:
 496              		.loc 3 79 3 view .LVU152
 497              		.loc 3 79 24 is_stmt 0 view .LVU153
 498 0328 6A00     		pushq	$0
 499              		.cfi_def_cfa_offset 32
 500 032a 41B91900 		movl	$25, %r9d
GAS LISTING /tmp/cce3XYli.s 			page 23


 500      0000
 501 0330 41B80000 		movl	$0, %r8d
 501      0000
 502 0336 B9010000 		movl	$1, %ecx
 502      00
 503 033b 488D1500 		leaq	.LC6(%rip), %rdx
 503      000000
 504 0342 BE020000 		movl	$2, %esi
 504      00
 505 0347 488B3D00 		movq	stdout(%rip), %rdi
 505      000000
 506 034e B8000000 		movl	$0, %eax
 506      00
 507 0353 E8000000 		call	__fprintf_chk@PLT
 507      00
 508              	.LVL44:
 509              		.loc 3 79 24 view .LVU154
 510              	.LBE518:
 511              	.LBE517:
 101:main.cpp      **** }
 512              		.loc 1 101 1 view .LVU155
 513 0358 4883C418 		addq	$24, %rsp
 514              		.cfi_def_cfa_offset 8
 515 035c C3       		ret
 516              		.cfi_endproc
 517              	.LFE4094:
 518              		.size	_Z12show_versionv, .-_Z12show_versionv
 519              		.section	.text._ZNSt7__cxx1112basic_stringIcSt11char_traitsIcESaIcEE10_M_disposeEv,"axG",@progbits
 520              		.align 2
 521              		.weak	_ZNSt7__cxx1112basic_stringIcSt11char_traitsIcESaIcEE10_M_disposeEv
 522              		.type	_ZNSt7__cxx1112basic_stringIcSt11char_traitsIcESaIcEE10_M_disposeEv, @function
 523              	_ZNSt7__cxx1112basic_stringIcSt11char_traitsIcESaIcEE10_M_disposeEv:
 524              	.LVL45:
 525              	.LFB4505:
 526              		.file 4 "/usr/lib/gcc/x86_64-pc-linux-gnu/12/include/g++-v12/bits/basic_string.h"
   1:/usr/lib/gcc/x86_64-pc-linux-gnu/12/include/g++-v12/bits/basic_string.h **** // Components for manipulating sequences of characters -*- C++ -*-
   2:/usr/lib/gcc/x86_64-pc-linux-gnu/12/include/g++-v12/bits/basic_string.h **** 
   3:/usr/lib/gcc/x86_64-pc-linux-gnu/12/include/g++-v12/bits/basic_string.h **** // Copyright (C) 1997-2022 Free Software Foundation, Inc.
   4:/usr/lib/gcc/x86_64-pc-linux-gnu/12/include/g++-v12/bits/basic_string.h **** //
   5:/usr/lib/gcc/x86_64-pc-linux-gnu/12/include/g++-v12/bits/basic_string.h **** // This file is part of the GNU ISO C++ Library.  This library is free
   6:/usr/lib/gcc/x86_64-pc-linux-gnu/12/include/g++-v12/bits/basic_string.h **** // software; you can redistribute it and/or modify it under the
   7:/usr/lib/gcc/x86_64-pc-linux-gnu/12/include/g++-v12/bits/basic_string.h **** // terms of the GNU General Public License as published by the
   8:/usr/lib/gcc/x86_64-pc-linux-gnu/12/include/g++-v12/bits/basic_string.h **** // Free Software Foundation; either version 3, or (at your option)
   9:/usr/lib/gcc/x86_64-pc-linux-gnu/12/include/g++-v12/bits/basic_string.h **** // any later version.
  10:/usr/lib/gcc/x86_64-pc-linux-gnu/12/include/g++-v12/bits/basic_string.h **** 
  11:/usr/lib/gcc/x86_64-pc-linux-gnu/12/include/g++-v12/bits/basic_string.h **** // This library is distributed in the hope that it will be useful,
  12:/usr/lib/gcc/x86_64-pc-linux-gnu/12/include/g++-v12/bits/basic_string.h **** // but WITHOUT ANY WARRANTY; without even the implied warranty of
  13:/usr/lib/gcc/x86_64-pc-linux-gnu/12/include/g++-v12/bits/basic_string.h **** // MERCHANTABILITY or FITNESS FOR A PARTICULAR PURPOSE.  See the
  14:/usr/lib/gcc/x86_64-pc-linux-gnu/12/include/g++-v12/bits/basic_string.h **** // GNU General Public License for more details.
  15:/usr/lib/gcc/x86_64-pc-linux-gnu/12/include/g++-v12/bits/basic_string.h **** 
  16:/usr/lib/gcc/x86_64-pc-linux-gnu/12/include/g++-v12/bits/basic_string.h **** // Under Section 7 of GPL version 3, you are granted additional
  17:/usr/lib/gcc/x86_64-pc-linux-gnu/12/include/g++-v12/bits/basic_string.h **** // permissions described in the GCC Runtime Library Exception, version
  18:/usr/lib/gcc/x86_64-pc-linux-gnu/12/include/g++-v12/bits/basic_string.h **** // 3.1, as published by the Free Software Foundation.
  19:/usr/lib/gcc/x86_64-pc-linux-gnu/12/include/g++-v12/bits/basic_string.h **** 
  20:/usr/lib/gcc/x86_64-pc-linux-gnu/12/include/g++-v12/bits/basic_string.h **** // You should have received a copy of the GNU General Public License and
  21:/usr/lib/gcc/x86_64-pc-linux-gnu/12/include/g++-v12/bits/basic_string.h **** // a copy of the GCC Runtime Library Exception along with this program;
  22:/usr/lib/gcc/x86_64-pc-linux-gnu/12/include/g++-v12/bits/basic_string.h **** // see the files COPYING3 and COPYING.RUNTIME respectively.  If not, see
GAS LISTING /tmp/cce3XYli.s 			page 24


  23:/usr/lib/gcc/x86_64-pc-linux-gnu/12/include/g++-v12/bits/basic_string.h **** // <http://www.gnu.org/licenses/>.
  24:/usr/lib/gcc/x86_64-pc-linux-gnu/12/include/g++-v12/bits/basic_string.h **** 
  25:/usr/lib/gcc/x86_64-pc-linux-gnu/12/include/g++-v12/bits/basic_string.h **** /** @file bits/basic_string.h
  26:/usr/lib/gcc/x86_64-pc-linux-gnu/12/include/g++-v12/bits/basic_string.h ****  *  This is an internal header file, included by other library headers.
  27:/usr/lib/gcc/x86_64-pc-linux-gnu/12/include/g++-v12/bits/basic_string.h ****  *  Do not attempt to use it directly. @headername{string}
  28:/usr/lib/gcc/x86_64-pc-linux-gnu/12/include/g++-v12/bits/basic_string.h ****  */
  29:/usr/lib/gcc/x86_64-pc-linux-gnu/12/include/g++-v12/bits/basic_string.h **** 
  30:/usr/lib/gcc/x86_64-pc-linux-gnu/12/include/g++-v12/bits/basic_string.h **** //
  31:/usr/lib/gcc/x86_64-pc-linux-gnu/12/include/g++-v12/bits/basic_string.h **** // ISO C++ 14882: 21 Strings library
  32:/usr/lib/gcc/x86_64-pc-linux-gnu/12/include/g++-v12/bits/basic_string.h **** //
  33:/usr/lib/gcc/x86_64-pc-linux-gnu/12/include/g++-v12/bits/basic_string.h **** 
  34:/usr/lib/gcc/x86_64-pc-linux-gnu/12/include/g++-v12/bits/basic_string.h **** #ifndef _BASIC_STRING_H
  35:/usr/lib/gcc/x86_64-pc-linux-gnu/12/include/g++-v12/bits/basic_string.h **** #define _BASIC_STRING_H 1
  36:/usr/lib/gcc/x86_64-pc-linux-gnu/12/include/g++-v12/bits/basic_string.h **** 
  37:/usr/lib/gcc/x86_64-pc-linux-gnu/12/include/g++-v12/bits/basic_string.h **** #pragma GCC system_header
  38:/usr/lib/gcc/x86_64-pc-linux-gnu/12/include/g++-v12/bits/basic_string.h **** 
  39:/usr/lib/gcc/x86_64-pc-linux-gnu/12/include/g++-v12/bits/basic_string.h **** #include <ext/alloc_traits.h>
  40:/usr/lib/gcc/x86_64-pc-linux-gnu/12/include/g++-v12/bits/basic_string.h **** #include <debug/debug.h>
  41:/usr/lib/gcc/x86_64-pc-linux-gnu/12/include/g++-v12/bits/basic_string.h **** 
  42:/usr/lib/gcc/x86_64-pc-linux-gnu/12/include/g++-v12/bits/basic_string.h **** #if __cplusplus >= 201103L
  43:/usr/lib/gcc/x86_64-pc-linux-gnu/12/include/g++-v12/bits/basic_string.h **** #include <initializer_list>
  44:/usr/lib/gcc/x86_64-pc-linux-gnu/12/include/g++-v12/bits/basic_string.h **** #endif
  45:/usr/lib/gcc/x86_64-pc-linux-gnu/12/include/g++-v12/bits/basic_string.h **** 
  46:/usr/lib/gcc/x86_64-pc-linux-gnu/12/include/g++-v12/bits/basic_string.h **** #if __cplusplus >= 201703L
  47:/usr/lib/gcc/x86_64-pc-linux-gnu/12/include/g++-v12/bits/basic_string.h **** # include <string_view>
  48:/usr/lib/gcc/x86_64-pc-linux-gnu/12/include/g++-v12/bits/basic_string.h **** #endif
  49:/usr/lib/gcc/x86_64-pc-linux-gnu/12/include/g++-v12/bits/basic_string.h **** 
  50:/usr/lib/gcc/x86_64-pc-linux-gnu/12/include/g++-v12/bits/basic_string.h **** #if ! _GLIBCXX_USE_CXX11_ABI
  51:/usr/lib/gcc/x86_64-pc-linux-gnu/12/include/g++-v12/bits/basic_string.h **** # include "cow_string.h"
  52:/usr/lib/gcc/x86_64-pc-linux-gnu/12/include/g++-v12/bits/basic_string.h **** #else
  53:/usr/lib/gcc/x86_64-pc-linux-gnu/12/include/g++-v12/bits/basic_string.h **** namespace std _GLIBCXX_VISIBILITY(default)
  54:/usr/lib/gcc/x86_64-pc-linux-gnu/12/include/g++-v12/bits/basic_string.h **** {
  55:/usr/lib/gcc/x86_64-pc-linux-gnu/12/include/g++-v12/bits/basic_string.h **** _GLIBCXX_BEGIN_NAMESPACE_VERSION
  56:/usr/lib/gcc/x86_64-pc-linux-gnu/12/include/g++-v12/bits/basic_string.h **** _GLIBCXX_BEGIN_NAMESPACE_CXX11
  57:/usr/lib/gcc/x86_64-pc-linux-gnu/12/include/g++-v12/bits/basic_string.h **** 
  58:/usr/lib/gcc/x86_64-pc-linux-gnu/12/include/g++-v12/bits/basic_string.h **** #ifdef __cpp_lib_is_constant_evaluated
  59:/usr/lib/gcc/x86_64-pc-linux-gnu/12/include/g++-v12/bits/basic_string.h **** // Support P0980R1 in C++20.
  60:/usr/lib/gcc/x86_64-pc-linux-gnu/12/include/g++-v12/bits/basic_string.h **** # define __cpp_lib_constexpr_string 201907L
  61:/usr/lib/gcc/x86_64-pc-linux-gnu/12/include/g++-v12/bits/basic_string.h **** #elif __cplusplus >= 201703L && _GLIBCXX_HAVE_IS_CONSTANT_EVALUATED
  62:/usr/lib/gcc/x86_64-pc-linux-gnu/12/include/g++-v12/bits/basic_string.h **** // Support P0426R1 changes to char_traits in C++17.
  63:/usr/lib/gcc/x86_64-pc-linux-gnu/12/include/g++-v12/bits/basic_string.h **** # define __cpp_lib_constexpr_string 201611L
  64:/usr/lib/gcc/x86_64-pc-linux-gnu/12/include/g++-v12/bits/basic_string.h **** #endif
  65:/usr/lib/gcc/x86_64-pc-linux-gnu/12/include/g++-v12/bits/basic_string.h **** 
  66:/usr/lib/gcc/x86_64-pc-linux-gnu/12/include/g++-v12/bits/basic_string.h ****   /**
  67:/usr/lib/gcc/x86_64-pc-linux-gnu/12/include/g++-v12/bits/basic_string.h ****    *  @class basic_string basic_string.h <string>
  68:/usr/lib/gcc/x86_64-pc-linux-gnu/12/include/g++-v12/bits/basic_string.h ****    *  @brief  Managing sequences of characters and character-like objects.
  69:/usr/lib/gcc/x86_64-pc-linux-gnu/12/include/g++-v12/bits/basic_string.h ****    *
  70:/usr/lib/gcc/x86_64-pc-linux-gnu/12/include/g++-v12/bits/basic_string.h ****    *  @ingroup strings
  71:/usr/lib/gcc/x86_64-pc-linux-gnu/12/include/g++-v12/bits/basic_string.h ****    *  @ingroup sequences
  72:/usr/lib/gcc/x86_64-pc-linux-gnu/12/include/g++-v12/bits/basic_string.h ****    *
  73:/usr/lib/gcc/x86_64-pc-linux-gnu/12/include/g++-v12/bits/basic_string.h ****    *  @tparam _CharT  Type of character
  74:/usr/lib/gcc/x86_64-pc-linux-gnu/12/include/g++-v12/bits/basic_string.h ****    *  @tparam _Traits  Traits for character type, defaults to
  75:/usr/lib/gcc/x86_64-pc-linux-gnu/12/include/g++-v12/bits/basic_string.h ****    *                   char_traits<_CharT>.
  76:/usr/lib/gcc/x86_64-pc-linux-gnu/12/include/g++-v12/bits/basic_string.h ****    *  @tparam _Alloc  Allocator type, defaults to allocator<_CharT>.
  77:/usr/lib/gcc/x86_64-pc-linux-gnu/12/include/g++-v12/bits/basic_string.h ****    *
  78:/usr/lib/gcc/x86_64-pc-linux-gnu/12/include/g++-v12/bits/basic_string.h ****    *  Meets the requirements of a <a href="tables.html#65">container</a>, a
  79:/usr/lib/gcc/x86_64-pc-linux-gnu/12/include/g++-v12/bits/basic_string.h ****    *  <a href="tables.html#66">reversible container</a>, and a
GAS LISTING /tmp/cce3XYli.s 			page 25


  80:/usr/lib/gcc/x86_64-pc-linux-gnu/12/include/g++-v12/bits/basic_string.h ****    *  <a href="tables.html#67">sequence</a>.  Of the
  81:/usr/lib/gcc/x86_64-pc-linux-gnu/12/include/g++-v12/bits/basic_string.h ****    *  <a href="tables.html#68">optional sequence requirements</a>, only
  82:/usr/lib/gcc/x86_64-pc-linux-gnu/12/include/g++-v12/bits/basic_string.h ****    *  @c push_back, @c at, and @c %array access are supported.
  83:/usr/lib/gcc/x86_64-pc-linux-gnu/12/include/g++-v12/bits/basic_string.h ****    */
  84:/usr/lib/gcc/x86_64-pc-linux-gnu/12/include/g++-v12/bits/basic_string.h ****   template<typename _CharT, typename _Traits, typename _Alloc>
  85:/usr/lib/gcc/x86_64-pc-linux-gnu/12/include/g++-v12/bits/basic_string.h ****     class basic_string
  86:/usr/lib/gcc/x86_64-pc-linux-gnu/12/include/g++-v12/bits/basic_string.h ****     {
  87:/usr/lib/gcc/x86_64-pc-linux-gnu/12/include/g++-v12/bits/basic_string.h ****       typedef typename __gnu_cxx::__alloc_traits<_Alloc>::template
  88:/usr/lib/gcc/x86_64-pc-linux-gnu/12/include/g++-v12/bits/basic_string.h **** 	rebind<_CharT>::other _Char_alloc_type;
  89:/usr/lib/gcc/x86_64-pc-linux-gnu/12/include/g++-v12/bits/basic_string.h **** 
  90:/usr/lib/gcc/x86_64-pc-linux-gnu/12/include/g++-v12/bits/basic_string.h **** #if __cpp_lib_constexpr_string < 201907L
  91:/usr/lib/gcc/x86_64-pc-linux-gnu/12/include/g++-v12/bits/basic_string.h ****       typedef __gnu_cxx::__alloc_traits<_Char_alloc_type> _Alloc_traits;
  92:/usr/lib/gcc/x86_64-pc-linux-gnu/12/include/g++-v12/bits/basic_string.h **** #else
  93:/usr/lib/gcc/x86_64-pc-linux-gnu/12/include/g++-v12/bits/basic_string.h ****       template<typename _Traits2, typename _Dummy_for_PR85282>
  94:/usr/lib/gcc/x86_64-pc-linux-gnu/12/include/g++-v12/bits/basic_string.h **** 	struct _Alloc_traits_impl : __gnu_cxx::__alloc_traits<_Char_alloc_type>
  95:/usr/lib/gcc/x86_64-pc-linux-gnu/12/include/g++-v12/bits/basic_string.h **** 	{
  96:/usr/lib/gcc/x86_64-pc-linux-gnu/12/include/g++-v12/bits/basic_string.h **** 	  typedef __gnu_cxx::__alloc_traits<_Char_alloc_type> _Base;
  97:/usr/lib/gcc/x86_64-pc-linux-gnu/12/include/g++-v12/bits/basic_string.h **** 
  98:/usr/lib/gcc/x86_64-pc-linux-gnu/12/include/g++-v12/bits/basic_string.h **** 	  [[__gnu__::__always_inline__]]
  99:/usr/lib/gcc/x86_64-pc-linux-gnu/12/include/g++-v12/bits/basic_string.h **** 	  static constexpr typename _Base::pointer
 100:/usr/lib/gcc/x86_64-pc-linux-gnu/12/include/g++-v12/bits/basic_string.h **** 	  allocate(_Char_alloc_type& __a, typename _Base::size_type __n)
 101:/usr/lib/gcc/x86_64-pc-linux-gnu/12/include/g++-v12/bits/basic_string.h **** 	  {
 102:/usr/lib/gcc/x86_64-pc-linux-gnu/12/include/g++-v12/bits/basic_string.h **** 	    pointer __p = _Base::allocate(__a, __n);
 103:/usr/lib/gcc/x86_64-pc-linux-gnu/12/include/g++-v12/bits/basic_string.h **** 	    if (std::is_constant_evaluated())
 104:/usr/lib/gcc/x86_64-pc-linux-gnu/12/include/g++-v12/bits/basic_string.h **** 	      // Begin the lifetime of characters in allocated storage.
 105:/usr/lib/gcc/x86_64-pc-linux-gnu/12/include/g++-v12/bits/basic_string.h **** 	      for (size_type __i = 0; __i < __n; ++__i)
 106:/usr/lib/gcc/x86_64-pc-linux-gnu/12/include/g++-v12/bits/basic_string.h **** 		std::construct_at(__builtin_addressof(__p[__i]));
 107:/usr/lib/gcc/x86_64-pc-linux-gnu/12/include/g++-v12/bits/basic_string.h **** 	    return __p;
 108:/usr/lib/gcc/x86_64-pc-linux-gnu/12/include/g++-v12/bits/basic_string.h **** 	  }
 109:/usr/lib/gcc/x86_64-pc-linux-gnu/12/include/g++-v12/bits/basic_string.h **** 	};
 110:/usr/lib/gcc/x86_64-pc-linux-gnu/12/include/g++-v12/bits/basic_string.h **** 
 111:/usr/lib/gcc/x86_64-pc-linux-gnu/12/include/g++-v12/bits/basic_string.h ****       template<typename _Dummy_for_PR85282>
 112:/usr/lib/gcc/x86_64-pc-linux-gnu/12/include/g++-v12/bits/basic_string.h **** 	struct _Alloc_traits_impl<char_traits<_CharT>, _Dummy_for_PR85282>
 113:/usr/lib/gcc/x86_64-pc-linux-gnu/12/include/g++-v12/bits/basic_string.h **** 	: __gnu_cxx::__alloc_traits<_Char_alloc_type>
 114:/usr/lib/gcc/x86_64-pc-linux-gnu/12/include/g++-v12/bits/basic_string.h **** 	{
 115:/usr/lib/gcc/x86_64-pc-linux-gnu/12/include/g++-v12/bits/basic_string.h **** 	  // std::char_traits begins the lifetime of characters.
 116:/usr/lib/gcc/x86_64-pc-linux-gnu/12/include/g++-v12/bits/basic_string.h **** 	};
 117:/usr/lib/gcc/x86_64-pc-linux-gnu/12/include/g++-v12/bits/basic_string.h **** 
 118:/usr/lib/gcc/x86_64-pc-linux-gnu/12/include/g++-v12/bits/basic_string.h ****       using _Alloc_traits = _Alloc_traits_impl<_Traits, void>;
 119:/usr/lib/gcc/x86_64-pc-linux-gnu/12/include/g++-v12/bits/basic_string.h **** #endif
 120:/usr/lib/gcc/x86_64-pc-linux-gnu/12/include/g++-v12/bits/basic_string.h **** 
 121:/usr/lib/gcc/x86_64-pc-linux-gnu/12/include/g++-v12/bits/basic_string.h ****       // Types:
 122:/usr/lib/gcc/x86_64-pc-linux-gnu/12/include/g++-v12/bits/basic_string.h ****     public:
 123:/usr/lib/gcc/x86_64-pc-linux-gnu/12/include/g++-v12/bits/basic_string.h ****       typedef _Traits					traits_type;
 124:/usr/lib/gcc/x86_64-pc-linux-gnu/12/include/g++-v12/bits/basic_string.h ****       typedef typename _Traits::char_type		value_type;
 125:/usr/lib/gcc/x86_64-pc-linux-gnu/12/include/g++-v12/bits/basic_string.h ****       typedef _Char_alloc_type				allocator_type;
 126:/usr/lib/gcc/x86_64-pc-linux-gnu/12/include/g++-v12/bits/basic_string.h ****       typedef typename _Alloc_traits::size_type		size_type;
 127:/usr/lib/gcc/x86_64-pc-linux-gnu/12/include/g++-v12/bits/basic_string.h ****       typedef typename _Alloc_traits::difference_type	difference_type;
 128:/usr/lib/gcc/x86_64-pc-linux-gnu/12/include/g++-v12/bits/basic_string.h ****       typedef typename _Alloc_traits::reference		reference;
 129:/usr/lib/gcc/x86_64-pc-linux-gnu/12/include/g++-v12/bits/basic_string.h ****       typedef typename _Alloc_traits::const_reference	const_reference;
 130:/usr/lib/gcc/x86_64-pc-linux-gnu/12/include/g++-v12/bits/basic_string.h ****       typedef typename _Alloc_traits::pointer		pointer;
 131:/usr/lib/gcc/x86_64-pc-linux-gnu/12/include/g++-v12/bits/basic_string.h ****       typedef typename _Alloc_traits::const_pointer	const_pointer;
 132:/usr/lib/gcc/x86_64-pc-linux-gnu/12/include/g++-v12/bits/basic_string.h ****       typedef __gnu_cxx::__normal_iterator<pointer, basic_string>  iterator;
 133:/usr/lib/gcc/x86_64-pc-linux-gnu/12/include/g++-v12/bits/basic_string.h ****       typedef __gnu_cxx::__normal_iterator<const_pointer, basic_string>
 134:/usr/lib/gcc/x86_64-pc-linux-gnu/12/include/g++-v12/bits/basic_string.h **** 							const_iterator;
 135:/usr/lib/gcc/x86_64-pc-linux-gnu/12/include/g++-v12/bits/basic_string.h ****       typedef std::reverse_iterator<const_iterator>	const_reverse_iterator;
 136:/usr/lib/gcc/x86_64-pc-linux-gnu/12/include/g++-v12/bits/basic_string.h ****       typedef std::reverse_iterator<iterator>		reverse_iterator;
GAS LISTING /tmp/cce3XYli.s 			page 26


 137:/usr/lib/gcc/x86_64-pc-linux-gnu/12/include/g++-v12/bits/basic_string.h **** 
 138:/usr/lib/gcc/x86_64-pc-linux-gnu/12/include/g++-v12/bits/basic_string.h ****       ///  Value returned by various member functions when they fail.
 139:/usr/lib/gcc/x86_64-pc-linux-gnu/12/include/g++-v12/bits/basic_string.h ****       static const size_type	npos = static_cast<size_type>(-1);
 140:/usr/lib/gcc/x86_64-pc-linux-gnu/12/include/g++-v12/bits/basic_string.h **** 
 141:/usr/lib/gcc/x86_64-pc-linux-gnu/12/include/g++-v12/bits/basic_string.h ****     protected:
 142:/usr/lib/gcc/x86_64-pc-linux-gnu/12/include/g++-v12/bits/basic_string.h ****       // type used for positions in insert, erase etc.
 143:/usr/lib/gcc/x86_64-pc-linux-gnu/12/include/g++-v12/bits/basic_string.h **** #if __cplusplus < 201103L
 144:/usr/lib/gcc/x86_64-pc-linux-gnu/12/include/g++-v12/bits/basic_string.h ****       typedef iterator __const_iterator;
 145:/usr/lib/gcc/x86_64-pc-linux-gnu/12/include/g++-v12/bits/basic_string.h **** #else
 146:/usr/lib/gcc/x86_64-pc-linux-gnu/12/include/g++-v12/bits/basic_string.h ****       typedef const_iterator __const_iterator;
 147:/usr/lib/gcc/x86_64-pc-linux-gnu/12/include/g++-v12/bits/basic_string.h **** #endif
 148:/usr/lib/gcc/x86_64-pc-linux-gnu/12/include/g++-v12/bits/basic_string.h **** 
 149:/usr/lib/gcc/x86_64-pc-linux-gnu/12/include/g++-v12/bits/basic_string.h ****     private:
 150:/usr/lib/gcc/x86_64-pc-linux-gnu/12/include/g++-v12/bits/basic_string.h **** #if __cplusplus >= 201703L
 151:/usr/lib/gcc/x86_64-pc-linux-gnu/12/include/g++-v12/bits/basic_string.h ****       // A helper type for avoiding boiler-plate.
 152:/usr/lib/gcc/x86_64-pc-linux-gnu/12/include/g++-v12/bits/basic_string.h ****       typedef basic_string_view<_CharT, _Traits> __sv_type;
 153:/usr/lib/gcc/x86_64-pc-linux-gnu/12/include/g++-v12/bits/basic_string.h **** 
 154:/usr/lib/gcc/x86_64-pc-linux-gnu/12/include/g++-v12/bits/basic_string.h ****       template<typename _Tp, typename _Res>
 155:/usr/lib/gcc/x86_64-pc-linux-gnu/12/include/g++-v12/bits/basic_string.h **** 	using _If_sv = enable_if_t<
 156:/usr/lib/gcc/x86_64-pc-linux-gnu/12/include/g++-v12/bits/basic_string.h **** 	  __and_<is_convertible<const _Tp&, __sv_type>,
 157:/usr/lib/gcc/x86_64-pc-linux-gnu/12/include/g++-v12/bits/basic_string.h **** 		 __not_<is_convertible<const _Tp*, const basic_string*>>,
 158:/usr/lib/gcc/x86_64-pc-linux-gnu/12/include/g++-v12/bits/basic_string.h **** 		 __not_<is_convertible<const _Tp&, const _CharT*>>>::value,
 159:/usr/lib/gcc/x86_64-pc-linux-gnu/12/include/g++-v12/bits/basic_string.h **** 	  _Res>;
 160:/usr/lib/gcc/x86_64-pc-linux-gnu/12/include/g++-v12/bits/basic_string.h **** 
 161:/usr/lib/gcc/x86_64-pc-linux-gnu/12/include/g++-v12/bits/basic_string.h ****       // Allows an implicit conversion to __sv_type.
 162:/usr/lib/gcc/x86_64-pc-linux-gnu/12/include/g++-v12/bits/basic_string.h ****       _GLIBCXX20_CONSTEXPR
 163:/usr/lib/gcc/x86_64-pc-linux-gnu/12/include/g++-v12/bits/basic_string.h ****       static __sv_type
 164:/usr/lib/gcc/x86_64-pc-linux-gnu/12/include/g++-v12/bits/basic_string.h ****       _S_to_string_view(__sv_type __svt) noexcept
 165:/usr/lib/gcc/x86_64-pc-linux-gnu/12/include/g++-v12/bits/basic_string.h ****       { return __svt; }
 166:/usr/lib/gcc/x86_64-pc-linux-gnu/12/include/g++-v12/bits/basic_string.h **** 
 167:/usr/lib/gcc/x86_64-pc-linux-gnu/12/include/g++-v12/bits/basic_string.h ****       // Wraps a string_view by explicit conversion and thus
 168:/usr/lib/gcc/x86_64-pc-linux-gnu/12/include/g++-v12/bits/basic_string.h ****       // allows to add an internal constructor that does not
 169:/usr/lib/gcc/x86_64-pc-linux-gnu/12/include/g++-v12/bits/basic_string.h ****       // participate in overload resolution when a string_view
 170:/usr/lib/gcc/x86_64-pc-linux-gnu/12/include/g++-v12/bits/basic_string.h ****       // is provided.
 171:/usr/lib/gcc/x86_64-pc-linux-gnu/12/include/g++-v12/bits/basic_string.h ****       struct __sv_wrapper
 172:/usr/lib/gcc/x86_64-pc-linux-gnu/12/include/g++-v12/bits/basic_string.h ****       {
 173:/usr/lib/gcc/x86_64-pc-linux-gnu/12/include/g++-v12/bits/basic_string.h **** 	_GLIBCXX20_CONSTEXPR explicit
 174:/usr/lib/gcc/x86_64-pc-linux-gnu/12/include/g++-v12/bits/basic_string.h **** 	__sv_wrapper(__sv_type __sv) noexcept : _M_sv(__sv) { }
 175:/usr/lib/gcc/x86_64-pc-linux-gnu/12/include/g++-v12/bits/basic_string.h **** 
 176:/usr/lib/gcc/x86_64-pc-linux-gnu/12/include/g++-v12/bits/basic_string.h **** 	__sv_type _M_sv;
 177:/usr/lib/gcc/x86_64-pc-linux-gnu/12/include/g++-v12/bits/basic_string.h ****       };
 178:/usr/lib/gcc/x86_64-pc-linux-gnu/12/include/g++-v12/bits/basic_string.h **** 
 179:/usr/lib/gcc/x86_64-pc-linux-gnu/12/include/g++-v12/bits/basic_string.h ****       /**
 180:/usr/lib/gcc/x86_64-pc-linux-gnu/12/include/g++-v12/bits/basic_string.h ****        *  @brief  Only internally used: Construct string from a string view
 181:/usr/lib/gcc/x86_64-pc-linux-gnu/12/include/g++-v12/bits/basic_string.h ****        *          wrapper.
 182:/usr/lib/gcc/x86_64-pc-linux-gnu/12/include/g++-v12/bits/basic_string.h ****        *  @param  __svw  string view wrapper.
 183:/usr/lib/gcc/x86_64-pc-linux-gnu/12/include/g++-v12/bits/basic_string.h ****        *  @param  __a  Allocator to use.
 184:/usr/lib/gcc/x86_64-pc-linux-gnu/12/include/g++-v12/bits/basic_string.h ****        */
 185:/usr/lib/gcc/x86_64-pc-linux-gnu/12/include/g++-v12/bits/basic_string.h ****       _GLIBCXX20_CONSTEXPR
 186:/usr/lib/gcc/x86_64-pc-linux-gnu/12/include/g++-v12/bits/basic_string.h ****       explicit
 187:/usr/lib/gcc/x86_64-pc-linux-gnu/12/include/g++-v12/bits/basic_string.h ****       basic_string(__sv_wrapper __svw, const _Alloc& __a)
 188:/usr/lib/gcc/x86_64-pc-linux-gnu/12/include/g++-v12/bits/basic_string.h ****       : basic_string(__svw._M_sv.data(), __svw._M_sv.size(), __a) { }
 189:/usr/lib/gcc/x86_64-pc-linux-gnu/12/include/g++-v12/bits/basic_string.h **** #endif
 190:/usr/lib/gcc/x86_64-pc-linux-gnu/12/include/g++-v12/bits/basic_string.h **** 
 191:/usr/lib/gcc/x86_64-pc-linux-gnu/12/include/g++-v12/bits/basic_string.h ****       // Use empty-base optimization: http://www.cantrip.org/emptyopt.html
 192:/usr/lib/gcc/x86_64-pc-linux-gnu/12/include/g++-v12/bits/basic_string.h ****       struct _Alloc_hider : allocator_type // TODO check __is_final
 193:/usr/lib/gcc/x86_64-pc-linux-gnu/12/include/g++-v12/bits/basic_string.h ****       {
GAS LISTING /tmp/cce3XYli.s 			page 27


 194:/usr/lib/gcc/x86_64-pc-linux-gnu/12/include/g++-v12/bits/basic_string.h **** #if __cplusplus < 201103L
 195:/usr/lib/gcc/x86_64-pc-linux-gnu/12/include/g++-v12/bits/basic_string.h **** 	_Alloc_hider(pointer __dat, const _Alloc& __a = _Alloc())
 196:/usr/lib/gcc/x86_64-pc-linux-gnu/12/include/g++-v12/bits/basic_string.h **** 	: allocator_type(__a), _M_p(__dat) { }
 197:/usr/lib/gcc/x86_64-pc-linux-gnu/12/include/g++-v12/bits/basic_string.h **** #else
 198:/usr/lib/gcc/x86_64-pc-linux-gnu/12/include/g++-v12/bits/basic_string.h **** 	_GLIBCXX20_CONSTEXPR
 199:/usr/lib/gcc/x86_64-pc-linux-gnu/12/include/g++-v12/bits/basic_string.h **** 	_Alloc_hider(pointer __dat, const _Alloc& __a)
 200:/usr/lib/gcc/x86_64-pc-linux-gnu/12/include/g++-v12/bits/basic_string.h **** 	: allocator_type(__a), _M_p(__dat) { }
 201:/usr/lib/gcc/x86_64-pc-linux-gnu/12/include/g++-v12/bits/basic_string.h **** 
 202:/usr/lib/gcc/x86_64-pc-linux-gnu/12/include/g++-v12/bits/basic_string.h **** 	_GLIBCXX20_CONSTEXPR
 203:/usr/lib/gcc/x86_64-pc-linux-gnu/12/include/g++-v12/bits/basic_string.h **** 	_Alloc_hider(pointer __dat, _Alloc&& __a = _Alloc())
 204:/usr/lib/gcc/x86_64-pc-linux-gnu/12/include/g++-v12/bits/basic_string.h **** 	: allocator_type(std::move(__a)), _M_p(__dat) { }
 205:/usr/lib/gcc/x86_64-pc-linux-gnu/12/include/g++-v12/bits/basic_string.h **** #endif
 206:/usr/lib/gcc/x86_64-pc-linux-gnu/12/include/g++-v12/bits/basic_string.h **** 
 207:/usr/lib/gcc/x86_64-pc-linux-gnu/12/include/g++-v12/bits/basic_string.h **** 	pointer _M_p; // The actual data.
 208:/usr/lib/gcc/x86_64-pc-linux-gnu/12/include/g++-v12/bits/basic_string.h ****       };
 209:/usr/lib/gcc/x86_64-pc-linux-gnu/12/include/g++-v12/bits/basic_string.h **** 
 210:/usr/lib/gcc/x86_64-pc-linux-gnu/12/include/g++-v12/bits/basic_string.h ****       _Alloc_hider	_M_dataplus;
 211:/usr/lib/gcc/x86_64-pc-linux-gnu/12/include/g++-v12/bits/basic_string.h ****       size_type		_M_string_length;
 212:/usr/lib/gcc/x86_64-pc-linux-gnu/12/include/g++-v12/bits/basic_string.h **** 
 213:/usr/lib/gcc/x86_64-pc-linux-gnu/12/include/g++-v12/bits/basic_string.h ****       enum { _S_local_capacity = 15 / sizeof(_CharT) };
 214:/usr/lib/gcc/x86_64-pc-linux-gnu/12/include/g++-v12/bits/basic_string.h **** 
 215:/usr/lib/gcc/x86_64-pc-linux-gnu/12/include/g++-v12/bits/basic_string.h ****       union
 216:/usr/lib/gcc/x86_64-pc-linux-gnu/12/include/g++-v12/bits/basic_string.h ****       {
 217:/usr/lib/gcc/x86_64-pc-linux-gnu/12/include/g++-v12/bits/basic_string.h **** 	_CharT           _M_local_buf[_S_local_capacity + 1];
 218:/usr/lib/gcc/x86_64-pc-linux-gnu/12/include/g++-v12/bits/basic_string.h **** 	size_type        _M_allocated_capacity;
 219:/usr/lib/gcc/x86_64-pc-linux-gnu/12/include/g++-v12/bits/basic_string.h ****       };
 220:/usr/lib/gcc/x86_64-pc-linux-gnu/12/include/g++-v12/bits/basic_string.h **** 
 221:/usr/lib/gcc/x86_64-pc-linux-gnu/12/include/g++-v12/bits/basic_string.h ****       _GLIBCXX20_CONSTEXPR
 222:/usr/lib/gcc/x86_64-pc-linux-gnu/12/include/g++-v12/bits/basic_string.h ****       void
 223:/usr/lib/gcc/x86_64-pc-linux-gnu/12/include/g++-v12/bits/basic_string.h ****       _M_data(pointer __p)
 224:/usr/lib/gcc/x86_64-pc-linux-gnu/12/include/g++-v12/bits/basic_string.h ****       { _M_dataplus._M_p = __p; }
 225:/usr/lib/gcc/x86_64-pc-linux-gnu/12/include/g++-v12/bits/basic_string.h **** 
 226:/usr/lib/gcc/x86_64-pc-linux-gnu/12/include/g++-v12/bits/basic_string.h ****       _GLIBCXX20_CONSTEXPR
 227:/usr/lib/gcc/x86_64-pc-linux-gnu/12/include/g++-v12/bits/basic_string.h ****       void
 228:/usr/lib/gcc/x86_64-pc-linux-gnu/12/include/g++-v12/bits/basic_string.h ****       _M_length(size_type __length)
 229:/usr/lib/gcc/x86_64-pc-linux-gnu/12/include/g++-v12/bits/basic_string.h ****       { _M_string_length = __length; }
 230:/usr/lib/gcc/x86_64-pc-linux-gnu/12/include/g++-v12/bits/basic_string.h **** 
 231:/usr/lib/gcc/x86_64-pc-linux-gnu/12/include/g++-v12/bits/basic_string.h ****       _GLIBCXX20_CONSTEXPR
 232:/usr/lib/gcc/x86_64-pc-linux-gnu/12/include/g++-v12/bits/basic_string.h ****       pointer
 233:/usr/lib/gcc/x86_64-pc-linux-gnu/12/include/g++-v12/bits/basic_string.h ****       _M_data() const
 234:/usr/lib/gcc/x86_64-pc-linux-gnu/12/include/g++-v12/bits/basic_string.h ****       { return _M_dataplus._M_p; }
 235:/usr/lib/gcc/x86_64-pc-linux-gnu/12/include/g++-v12/bits/basic_string.h **** 
 236:/usr/lib/gcc/x86_64-pc-linux-gnu/12/include/g++-v12/bits/basic_string.h ****       _GLIBCXX20_CONSTEXPR
 237:/usr/lib/gcc/x86_64-pc-linux-gnu/12/include/g++-v12/bits/basic_string.h ****       pointer
 238:/usr/lib/gcc/x86_64-pc-linux-gnu/12/include/g++-v12/bits/basic_string.h ****       _M_local_data()
 239:/usr/lib/gcc/x86_64-pc-linux-gnu/12/include/g++-v12/bits/basic_string.h ****       {
 240:/usr/lib/gcc/x86_64-pc-linux-gnu/12/include/g++-v12/bits/basic_string.h **** #if __cplusplus >= 201103L
 241:/usr/lib/gcc/x86_64-pc-linux-gnu/12/include/g++-v12/bits/basic_string.h **** 	return std::pointer_traits<pointer>::pointer_to(*_M_local_buf);
 242:/usr/lib/gcc/x86_64-pc-linux-gnu/12/include/g++-v12/bits/basic_string.h **** #else
 243:/usr/lib/gcc/x86_64-pc-linux-gnu/12/include/g++-v12/bits/basic_string.h **** 	return pointer(_M_local_buf);
 244:/usr/lib/gcc/x86_64-pc-linux-gnu/12/include/g++-v12/bits/basic_string.h **** #endif
 245:/usr/lib/gcc/x86_64-pc-linux-gnu/12/include/g++-v12/bits/basic_string.h ****       }
 246:/usr/lib/gcc/x86_64-pc-linux-gnu/12/include/g++-v12/bits/basic_string.h **** 
 247:/usr/lib/gcc/x86_64-pc-linux-gnu/12/include/g++-v12/bits/basic_string.h ****       _GLIBCXX20_CONSTEXPR
 248:/usr/lib/gcc/x86_64-pc-linux-gnu/12/include/g++-v12/bits/basic_string.h ****       const_pointer
 249:/usr/lib/gcc/x86_64-pc-linux-gnu/12/include/g++-v12/bits/basic_string.h ****       _M_local_data() const
 250:/usr/lib/gcc/x86_64-pc-linux-gnu/12/include/g++-v12/bits/basic_string.h ****       {
GAS LISTING /tmp/cce3XYli.s 			page 28


 251:/usr/lib/gcc/x86_64-pc-linux-gnu/12/include/g++-v12/bits/basic_string.h **** #if __cplusplus >= 201103L
 252:/usr/lib/gcc/x86_64-pc-linux-gnu/12/include/g++-v12/bits/basic_string.h **** 	return std::pointer_traits<const_pointer>::pointer_to(*_M_local_buf);
 253:/usr/lib/gcc/x86_64-pc-linux-gnu/12/include/g++-v12/bits/basic_string.h **** #else
 254:/usr/lib/gcc/x86_64-pc-linux-gnu/12/include/g++-v12/bits/basic_string.h **** 	return const_pointer(_M_local_buf);
 255:/usr/lib/gcc/x86_64-pc-linux-gnu/12/include/g++-v12/bits/basic_string.h **** #endif
 256:/usr/lib/gcc/x86_64-pc-linux-gnu/12/include/g++-v12/bits/basic_string.h ****       }
 257:/usr/lib/gcc/x86_64-pc-linux-gnu/12/include/g++-v12/bits/basic_string.h **** 
 258:/usr/lib/gcc/x86_64-pc-linux-gnu/12/include/g++-v12/bits/basic_string.h ****       _GLIBCXX20_CONSTEXPR
 259:/usr/lib/gcc/x86_64-pc-linux-gnu/12/include/g++-v12/bits/basic_string.h ****       void
 260:/usr/lib/gcc/x86_64-pc-linux-gnu/12/include/g++-v12/bits/basic_string.h ****       _M_capacity(size_type __capacity)
 261:/usr/lib/gcc/x86_64-pc-linux-gnu/12/include/g++-v12/bits/basic_string.h ****       { _M_allocated_capacity = __capacity; }
 262:/usr/lib/gcc/x86_64-pc-linux-gnu/12/include/g++-v12/bits/basic_string.h **** 
 263:/usr/lib/gcc/x86_64-pc-linux-gnu/12/include/g++-v12/bits/basic_string.h ****       _GLIBCXX20_CONSTEXPR
 264:/usr/lib/gcc/x86_64-pc-linux-gnu/12/include/g++-v12/bits/basic_string.h ****       void
 265:/usr/lib/gcc/x86_64-pc-linux-gnu/12/include/g++-v12/bits/basic_string.h ****       _M_set_length(size_type __n)
 266:/usr/lib/gcc/x86_64-pc-linux-gnu/12/include/g++-v12/bits/basic_string.h ****       {
 267:/usr/lib/gcc/x86_64-pc-linux-gnu/12/include/g++-v12/bits/basic_string.h **** 	_M_length(__n);
 268:/usr/lib/gcc/x86_64-pc-linux-gnu/12/include/g++-v12/bits/basic_string.h **** 	traits_type::assign(_M_data()[__n], _CharT());
 269:/usr/lib/gcc/x86_64-pc-linux-gnu/12/include/g++-v12/bits/basic_string.h ****       }
 270:/usr/lib/gcc/x86_64-pc-linux-gnu/12/include/g++-v12/bits/basic_string.h **** 
 271:/usr/lib/gcc/x86_64-pc-linux-gnu/12/include/g++-v12/bits/basic_string.h ****       _GLIBCXX20_CONSTEXPR
 272:/usr/lib/gcc/x86_64-pc-linux-gnu/12/include/g++-v12/bits/basic_string.h ****       bool
 273:/usr/lib/gcc/x86_64-pc-linux-gnu/12/include/g++-v12/bits/basic_string.h ****       _M_is_local() const
 274:/usr/lib/gcc/x86_64-pc-linux-gnu/12/include/g++-v12/bits/basic_string.h ****       { return _M_data() == _M_local_data(); }
 275:/usr/lib/gcc/x86_64-pc-linux-gnu/12/include/g++-v12/bits/basic_string.h **** 
 276:/usr/lib/gcc/x86_64-pc-linux-gnu/12/include/g++-v12/bits/basic_string.h ****       // Create & Destroy
 277:/usr/lib/gcc/x86_64-pc-linux-gnu/12/include/g++-v12/bits/basic_string.h ****       _GLIBCXX20_CONSTEXPR
 278:/usr/lib/gcc/x86_64-pc-linux-gnu/12/include/g++-v12/bits/basic_string.h ****       pointer
 279:/usr/lib/gcc/x86_64-pc-linux-gnu/12/include/g++-v12/bits/basic_string.h ****       _M_create(size_type&, size_type);
 280:/usr/lib/gcc/x86_64-pc-linux-gnu/12/include/g++-v12/bits/basic_string.h **** 
 281:/usr/lib/gcc/x86_64-pc-linux-gnu/12/include/g++-v12/bits/basic_string.h ****       _GLIBCXX20_CONSTEXPR
 282:/usr/lib/gcc/x86_64-pc-linux-gnu/12/include/g++-v12/bits/basic_string.h ****       void
 283:/usr/lib/gcc/x86_64-pc-linux-gnu/12/include/g++-v12/bits/basic_string.h ****       _M_dispose()
 527              		.loc 4 283 7 is_stmt 1 view -0
 528              		.cfi_startproc
 529              	.LBB529:
 530              	.LBI529:
 273:/usr/lib/gcc/x86_64-pc-linux-gnu/12/include/g++-v12/bits/basic_string.h ****       { return _M_data() == _M_local_data(); }
 531              		.loc 4 273 7 view .LVU157
 532              	.LBB530:
 533              	.LBI530:
 233:/usr/lib/gcc/x86_64-pc-linux-gnu/12/include/g++-v12/bits/basic_string.h ****       { return _M_dataplus._M_p; }
 534              		.loc 4 233 7 view .LVU158
 535              	.LBB531:
 234:/usr/lib/gcc/x86_64-pc-linux-gnu/12/include/g++-v12/bits/basic_string.h **** 
 536              		.loc 4 234 28 is_stmt 0 view .LVU159
 537 0000 488B07   		movq	(%rdi), %rax
 538              	.LVL46:
 234:/usr/lib/gcc/x86_64-pc-linux-gnu/12/include/g++-v12/bits/basic_string.h **** 
 539              		.loc 4 234 28 view .LVU160
 540              	.LBE531:
 541              	.LBE530:
 542              	.LBB532:
 543              	.LBI532:
 249:/usr/lib/gcc/x86_64-pc-linux-gnu/12/include/g++-v12/bits/basic_string.h ****       {
 544              		.loc 4 249 7 is_stmt 1 view .LVU161
 545              	.LBB533:
GAS LISTING /tmp/cce3XYli.s 			page 29


 252:/usr/lib/gcc/x86_64-pc-linux-gnu/12/include/g++-v12/bits/basic_string.h **** #else
 546              		.loc 4 252 57 is_stmt 0 view .LVU162
 547 0003 488D5710 		leaq	16(%rdi), %rdx
 548              	.LBE533:
 549              	.LBE532:
 550              	.LBE529:
 284:/usr/lib/gcc/x86_64-pc-linux-gnu/12/include/g++-v12/bits/basic_string.h ****       {
 285:/usr/lib/gcc/x86_64-pc-linux-gnu/12/include/g++-v12/bits/basic_string.h **** 	if (!_M_is_local())
 551              		.loc 4 285 2 view .LVU163
 552 0007 4839D0   		cmpq	%rdx, %rax
 553 000a 7419     		je	.L18
 283:/usr/lib/gcc/x86_64-pc-linux-gnu/12/include/g++-v12/bits/basic_string.h ****       {
 554              		.loc 4 283 7 view .LVU164
 555 000c 4883EC08 		subq	$8, %rsp
 556              		.cfi_def_cfa_offset 16
 557              	.LVL47:
 558              	.LBB534:
 559              	.LBI534:
 286:/usr/lib/gcc/x86_64-pc-linux-gnu/12/include/g++-v12/bits/basic_string.h **** 	  _M_destroy(_M_allocated_capacity);
 287:/usr/lib/gcc/x86_64-pc-linux-gnu/12/include/g++-v12/bits/basic_string.h ****       }
 288:/usr/lib/gcc/x86_64-pc-linux-gnu/12/include/g++-v12/bits/basic_string.h **** 
 289:/usr/lib/gcc/x86_64-pc-linux-gnu/12/include/g++-v12/bits/basic_string.h ****       _GLIBCXX20_CONSTEXPR
 290:/usr/lib/gcc/x86_64-pc-linux-gnu/12/include/g++-v12/bits/basic_string.h ****       void
 291:/usr/lib/gcc/x86_64-pc-linux-gnu/12/include/g++-v12/bits/basic_string.h ****       _M_destroy(size_type __size) throw()
 560              		.loc 4 291 7 is_stmt 1 view .LVU165
 561              	.LBB535:
 562              	.LBB536:
 563              	.LBI536:
 564              		.file 5 "/usr/lib/gcc/x86_64-pc-linux-gnu/12/include/g++-v12/bits/alloc_traits.h"
   1:/usr/lib/gcc/x86_64-pc-linux-gnu/12/include/g++-v12/bits/alloc_traits.h **** // Allocator traits -*- C++ -*-
   2:/usr/lib/gcc/x86_64-pc-linux-gnu/12/include/g++-v12/bits/alloc_traits.h **** 
   3:/usr/lib/gcc/x86_64-pc-linux-gnu/12/include/g++-v12/bits/alloc_traits.h **** // Copyright (C) 2011-2022 Free Software Foundation, Inc.
   4:/usr/lib/gcc/x86_64-pc-linux-gnu/12/include/g++-v12/bits/alloc_traits.h **** //
   5:/usr/lib/gcc/x86_64-pc-linux-gnu/12/include/g++-v12/bits/alloc_traits.h **** // This file is part of the GNU ISO C++ Library.  This library is free
   6:/usr/lib/gcc/x86_64-pc-linux-gnu/12/include/g++-v12/bits/alloc_traits.h **** // software; you can redistribute it and/or modify it under the
   7:/usr/lib/gcc/x86_64-pc-linux-gnu/12/include/g++-v12/bits/alloc_traits.h **** // terms of the GNU General Public License as published by the
   8:/usr/lib/gcc/x86_64-pc-linux-gnu/12/include/g++-v12/bits/alloc_traits.h **** // Free Software Foundation; either version 3, or (at your option)
   9:/usr/lib/gcc/x86_64-pc-linux-gnu/12/include/g++-v12/bits/alloc_traits.h **** // any later version.
  10:/usr/lib/gcc/x86_64-pc-linux-gnu/12/include/g++-v12/bits/alloc_traits.h **** 
  11:/usr/lib/gcc/x86_64-pc-linux-gnu/12/include/g++-v12/bits/alloc_traits.h **** // This library is distributed in the hope that it will be useful,
  12:/usr/lib/gcc/x86_64-pc-linux-gnu/12/include/g++-v12/bits/alloc_traits.h **** // but WITHOUT ANY WARRANTY; without even the implied warranty of
  13:/usr/lib/gcc/x86_64-pc-linux-gnu/12/include/g++-v12/bits/alloc_traits.h **** // MERCHANTABILITY or FITNESS FOR A PARTICULAR PURPOSE.  See the
  14:/usr/lib/gcc/x86_64-pc-linux-gnu/12/include/g++-v12/bits/alloc_traits.h **** // GNU General Public License for more details.
  15:/usr/lib/gcc/x86_64-pc-linux-gnu/12/include/g++-v12/bits/alloc_traits.h **** 
  16:/usr/lib/gcc/x86_64-pc-linux-gnu/12/include/g++-v12/bits/alloc_traits.h **** // Under Section 7 of GPL version 3, you are granted additional
  17:/usr/lib/gcc/x86_64-pc-linux-gnu/12/include/g++-v12/bits/alloc_traits.h **** // permissions described in the GCC Runtime Library Exception, version
  18:/usr/lib/gcc/x86_64-pc-linux-gnu/12/include/g++-v12/bits/alloc_traits.h **** // 3.1, as published by the Free Software Foundation.
  19:/usr/lib/gcc/x86_64-pc-linux-gnu/12/include/g++-v12/bits/alloc_traits.h **** 
  20:/usr/lib/gcc/x86_64-pc-linux-gnu/12/include/g++-v12/bits/alloc_traits.h **** // You should have received a copy of the GNU General Public License and
  21:/usr/lib/gcc/x86_64-pc-linux-gnu/12/include/g++-v12/bits/alloc_traits.h **** // a copy of the GCC Runtime Library Exception along with this program;
  22:/usr/lib/gcc/x86_64-pc-linux-gnu/12/include/g++-v12/bits/alloc_traits.h **** // see the files COPYING3 and COPYING.RUNTIME respectively.  If not, see
  23:/usr/lib/gcc/x86_64-pc-linux-gnu/12/include/g++-v12/bits/alloc_traits.h **** // <http://www.gnu.org/licenses/>.
  24:/usr/lib/gcc/x86_64-pc-linux-gnu/12/include/g++-v12/bits/alloc_traits.h **** 
  25:/usr/lib/gcc/x86_64-pc-linux-gnu/12/include/g++-v12/bits/alloc_traits.h **** /** @file bits/alloc_traits.h
  26:/usr/lib/gcc/x86_64-pc-linux-gnu/12/include/g++-v12/bits/alloc_traits.h ****  *  This is an internal header file, included by other library headers.
  27:/usr/lib/gcc/x86_64-pc-linux-gnu/12/include/g++-v12/bits/alloc_traits.h ****  *  Do not attempt to use it directly. @headername{memory}
  28:/usr/lib/gcc/x86_64-pc-linux-gnu/12/include/g++-v12/bits/alloc_traits.h ****  */
GAS LISTING /tmp/cce3XYli.s 			page 30


  29:/usr/lib/gcc/x86_64-pc-linux-gnu/12/include/g++-v12/bits/alloc_traits.h **** 
  30:/usr/lib/gcc/x86_64-pc-linux-gnu/12/include/g++-v12/bits/alloc_traits.h **** #ifndef _ALLOC_TRAITS_H
  31:/usr/lib/gcc/x86_64-pc-linux-gnu/12/include/g++-v12/bits/alloc_traits.h **** #define _ALLOC_TRAITS_H 1
  32:/usr/lib/gcc/x86_64-pc-linux-gnu/12/include/g++-v12/bits/alloc_traits.h **** 
  33:/usr/lib/gcc/x86_64-pc-linux-gnu/12/include/g++-v12/bits/alloc_traits.h **** #include <bits/stl_construct.h>
  34:/usr/lib/gcc/x86_64-pc-linux-gnu/12/include/g++-v12/bits/alloc_traits.h **** #include <bits/memoryfwd.h>
  35:/usr/lib/gcc/x86_64-pc-linux-gnu/12/include/g++-v12/bits/alloc_traits.h **** #if __cplusplus >= 201103L
  36:/usr/lib/gcc/x86_64-pc-linux-gnu/12/include/g++-v12/bits/alloc_traits.h **** # include <bits/allocator.h>
  37:/usr/lib/gcc/x86_64-pc-linux-gnu/12/include/g++-v12/bits/alloc_traits.h **** # include <bits/ptr_traits.h>
  38:/usr/lib/gcc/x86_64-pc-linux-gnu/12/include/g++-v12/bits/alloc_traits.h **** # include <ext/numeric_traits.h>
  39:/usr/lib/gcc/x86_64-pc-linux-gnu/12/include/g++-v12/bits/alloc_traits.h **** #endif
  40:/usr/lib/gcc/x86_64-pc-linux-gnu/12/include/g++-v12/bits/alloc_traits.h **** 
  41:/usr/lib/gcc/x86_64-pc-linux-gnu/12/include/g++-v12/bits/alloc_traits.h **** namespace std _GLIBCXX_VISIBILITY(default)
  42:/usr/lib/gcc/x86_64-pc-linux-gnu/12/include/g++-v12/bits/alloc_traits.h **** {
  43:/usr/lib/gcc/x86_64-pc-linux-gnu/12/include/g++-v12/bits/alloc_traits.h **** _GLIBCXX_BEGIN_NAMESPACE_VERSION
  44:/usr/lib/gcc/x86_64-pc-linux-gnu/12/include/g++-v12/bits/alloc_traits.h **** 
  45:/usr/lib/gcc/x86_64-pc-linux-gnu/12/include/g++-v12/bits/alloc_traits.h **** #if __cplusplus >= 201103L
  46:/usr/lib/gcc/x86_64-pc-linux-gnu/12/include/g++-v12/bits/alloc_traits.h **** #define __cpp_lib_allocator_traits_is_always_equal 201411L
  47:/usr/lib/gcc/x86_64-pc-linux-gnu/12/include/g++-v12/bits/alloc_traits.h **** 
  48:/usr/lib/gcc/x86_64-pc-linux-gnu/12/include/g++-v12/bits/alloc_traits.h ****   /// @cond undocumented
  49:/usr/lib/gcc/x86_64-pc-linux-gnu/12/include/g++-v12/bits/alloc_traits.h ****   struct __allocator_traits_base
  50:/usr/lib/gcc/x86_64-pc-linux-gnu/12/include/g++-v12/bits/alloc_traits.h ****   {
  51:/usr/lib/gcc/x86_64-pc-linux-gnu/12/include/g++-v12/bits/alloc_traits.h ****     template<typename _Tp, typename _Up, typename = void>
  52:/usr/lib/gcc/x86_64-pc-linux-gnu/12/include/g++-v12/bits/alloc_traits.h ****       struct __rebind : __replace_first_arg<_Tp, _Up> { };
  53:/usr/lib/gcc/x86_64-pc-linux-gnu/12/include/g++-v12/bits/alloc_traits.h **** 
  54:/usr/lib/gcc/x86_64-pc-linux-gnu/12/include/g++-v12/bits/alloc_traits.h ****     template<typename _Tp, typename _Up>
  55:/usr/lib/gcc/x86_64-pc-linux-gnu/12/include/g++-v12/bits/alloc_traits.h ****       struct __rebind<_Tp, _Up,
  56:/usr/lib/gcc/x86_64-pc-linux-gnu/12/include/g++-v12/bits/alloc_traits.h **** 		      __void_t<typename _Tp::template rebind<_Up>::other>>
  57:/usr/lib/gcc/x86_64-pc-linux-gnu/12/include/g++-v12/bits/alloc_traits.h ****       { using type = typename _Tp::template rebind<_Up>::other; };
  58:/usr/lib/gcc/x86_64-pc-linux-gnu/12/include/g++-v12/bits/alloc_traits.h **** 
  59:/usr/lib/gcc/x86_64-pc-linux-gnu/12/include/g++-v12/bits/alloc_traits.h ****   protected:
  60:/usr/lib/gcc/x86_64-pc-linux-gnu/12/include/g++-v12/bits/alloc_traits.h ****     template<typename _Tp>
  61:/usr/lib/gcc/x86_64-pc-linux-gnu/12/include/g++-v12/bits/alloc_traits.h ****       using __pointer = typename _Tp::pointer;
  62:/usr/lib/gcc/x86_64-pc-linux-gnu/12/include/g++-v12/bits/alloc_traits.h ****     template<typename _Tp>
  63:/usr/lib/gcc/x86_64-pc-linux-gnu/12/include/g++-v12/bits/alloc_traits.h ****       using __c_pointer = typename _Tp::const_pointer;
  64:/usr/lib/gcc/x86_64-pc-linux-gnu/12/include/g++-v12/bits/alloc_traits.h ****     template<typename _Tp>
  65:/usr/lib/gcc/x86_64-pc-linux-gnu/12/include/g++-v12/bits/alloc_traits.h ****       using __v_pointer = typename _Tp::void_pointer;
  66:/usr/lib/gcc/x86_64-pc-linux-gnu/12/include/g++-v12/bits/alloc_traits.h ****     template<typename _Tp>
  67:/usr/lib/gcc/x86_64-pc-linux-gnu/12/include/g++-v12/bits/alloc_traits.h ****       using __cv_pointer = typename _Tp::const_void_pointer;
  68:/usr/lib/gcc/x86_64-pc-linux-gnu/12/include/g++-v12/bits/alloc_traits.h ****     template<typename _Tp>
  69:/usr/lib/gcc/x86_64-pc-linux-gnu/12/include/g++-v12/bits/alloc_traits.h ****       using __pocca = typename _Tp::propagate_on_container_copy_assignment;
  70:/usr/lib/gcc/x86_64-pc-linux-gnu/12/include/g++-v12/bits/alloc_traits.h ****     template<typename _Tp>
  71:/usr/lib/gcc/x86_64-pc-linux-gnu/12/include/g++-v12/bits/alloc_traits.h ****       using __pocma = typename _Tp::propagate_on_container_move_assignment;
  72:/usr/lib/gcc/x86_64-pc-linux-gnu/12/include/g++-v12/bits/alloc_traits.h ****     template<typename _Tp>
  73:/usr/lib/gcc/x86_64-pc-linux-gnu/12/include/g++-v12/bits/alloc_traits.h ****       using __pocs = typename _Tp::propagate_on_container_swap;
  74:/usr/lib/gcc/x86_64-pc-linux-gnu/12/include/g++-v12/bits/alloc_traits.h ****     template<typename _Tp>
  75:/usr/lib/gcc/x86_64-pc-linux-gnu/12/include/g++-v12/bits/alloc_traits.h ****       using __equal = typename _Tp::is_always_equal;
  76:/usr/lib/gcc/x86_64-pc-linux-gnu/12/include/g++-v12/bits/alloc_traits.h ****   };
  77:/usr/lib/gcc/x86_64-pc-linux-gnu/12/include/g++-v12/bits/alloc_traits.h **** 
  78:/usr/lib/gcc/x86_64-pc-linux-gnu/12/include/g++-v12/bits/alloc_traits.h ****   template<typename _Alloc, typename _Up>
  79:/usr/lib/gcc/x86_64-pc-linux-gnu/12/include/g++-v12/bits/alloc_traits.h ****     using __alloc_rebind
  80:/usr/lib/gcc/x86_64-pc-linux-gnu/12/include/g++-v12/bits/alloc_traits.h ****       = typename __allocator_traits_base::template __rebind<_Alloc, _Up>::type;
  81:/usr/lib/gcc/x86_64-pc-linux-gnu/12/include/g++-v12/bits/alloc_traits.h ****   /// @endcond
  82:/usr/lib/gcc/x86_64-pc-linux-gnu/12/include/g++-v12/bits/alloc_traits.h **** 
  83:/usr/lib/gcc/x86_64-pc-linux-gnu/12/include/g++-v12/bits/alloc_traits.h ****   /**
  84:/usr/lib/gcc/x86_64-pc-linux-gnu/12/include/g++-v12/bits/alloc_traits.h ****    * @brief  Uniform interface to all allocator types.
  85:/usr/lib/gcc/x86_64-pc-linux-gnu/12/include/g++-v12/bits/alloc_traits.h ****    * @headerfile memory
GAS LISTING /tmp/cce3XYli.s 			page 31


  86:/usr/lib/gcc/x86_64-pc-linux-gnu/12/include/g++-v12/bits/alloc_traits.h ****    * @ingroup allocators
  87:/usr/lib/gcc/x86_64-pc-linux-gnu/12/include/g++-v12/bits/alloc_traits.h ****    * @since C++11
  88:/usr/lib/gcc/x86_64-pc-linux-gnu/12/include/g++-v12/bits/alloc_traits.h ****   */
  89:/usr/lib/gcc/x86_64-pc-linux-gnu/12/include/g++-v12/bits/alloc_traits.h ****   template<typename _Alloc>
  90:/usr/lib/gcc/x86_64-pc-linux-gnu/12/include/g++-v12/bits/alloc_traits.h ****     struct allocator_traits : __allocator_traits_base
  91:/usr/lib/gcc/x86_64-pc-linux-gnu/12/include/g++-v12/bits/alloc_traits.h ****     {
  92:/usr/lib/gcc/x86_64-pc-linux-gnu/12/include/g++-v12/bits/alloc_traits.h ****       /// The allocator type
  93:/usr/lib/gcc/x86_64-pc-linux-gnu/12/include/g++-v12/bits/alloc_traits.h ****       typedef _Alloc allocator_type;
  94:/usr/lib/gcc/x86_64-pc-linux-gnu/12/include/g++-v12/bits/alloc_traits.h ****       /// The allocated type
  95:/usr/lib/gcc/x86_64-pc-linux-gnu/12/include/g++-v12/bits/alloc_traits.h ****       typedef typename _Alloc::value_type value_type;
  96:/usr/lib/gcc/x86_64-pc-linux-gnu/12/include/g++-v12/bits/alloc_traits.h **** 
  97:/usr/lib/gcc/x86_64-pc-linux-gnu/12/include/g++-v12/bits/alloc_traits.h ****       /**
  98:/usr/lib/gcc/x86_64-pc-linux-gnu/12/include/g++-v12/bits/alloc_traits.h ****        * @brief   The allocator's pointer type.
  99:/usr/lib/gcc/x86_64-pc-linux-gnu/12/include/g++-v12/bits/alloc_traits.h ****        *
 100:/usr/lib/gcc/x86_64-pc-linux-gnu/12/include/g++-v12/bits/alloc_traits.h ****        * @c Alloc::pointer if that type exists, otherwise @c value_type*
 101:/usr/lib/gcc/x86_64-pc-linux-gnu/12/include/g++-v12/bits/alloc_traits.h ****       */
 102:/usr/lib/gcc/x86_64-pc-linux-gnu/12/include/g++-v12/bits/alloc_traits.h ****       using pointer = __detected_or_t<value_type*, __pointer, _Alloc>;
 103:/usr/lib/gcc/x86_64-pc-linux-gnu/12/include/g++-v12/bits/alloc_traits.h **** 
 104:/usr/lib/gcc/x86_64-pc-linux-gnu/12/include/g++-v12/bits/alloc_traits.h ****     private:
 105:/usr/lib/gcc/x86_64-pc-linux-gnu/12/include/g++-v12/bits/alloc_traits.h ****       // Select _Func<_Alloc> or pointer_traits<pointer>::rebind<_Tp>
 106:/usr/lib/gcc/x86_64-pc-linux-gnu/12/include/g++-v12/bits/alloc_traits.h ****       template<template<typename> class _Func, typename _Tp, typename = void>
 107:/usr/lib/gcc/x86_64-pc-linux-gnu/12/include/g++-v12/bits/alloc_traits.h **** 	struct _Ptr
 108:/usr/lib/gcc/x86_64-pc-linux-gnu/12/include/g++-v12/bits/alloc_traits.h **** 	{
 109:/usr/lib/gcc/x86_64-pc-linux-gnu/12/include/g++-v12/bits/alloc_traits.h **** 	  using type = typename pointer_traits<pointer>::template rebind<_Tp>;
 110:/usr/lib/gcc/x86_64-pc-linux-gnu/12/include/g++-v12/bits/alloc_traits.h **** 	};
 111:/usr/lib/gcc/x86_64-pc-linux-gnu/12/include/g++-v12/bits/alloc_traits.h **** 
 112:/usr/lib/gcc/x86_64-pc-linux-gnu/12/include/g++-v12/bits/alloc_traits.h ****       template<template<typename> class _Func, typename _Tp>
 113:/usr/lib/gcc/x86_64-pc-linux-gnu/12/include/g++-v12/bits/alloc_traits.h **** 	struct _Ptr<_Func, _Tp, __void_t<_Func<_Alloc>>>
 114:/usr/lib/gcc/x86_64-pc-linux-gnu/12/include/g++-v12/bits/alloc_traits.h **** 	{
 115:/usr/lib/gcc/x86_64-pc-linux-gnu/12/include/g++-v12/bits/alloc_traits.h **** 	  using type = _Func<_Alloc>;
 116:/usr/lib/gcc/x86_64-pc-linux-gnu/12/include/g++-v12/bits/alloc_traits.h **** 	};
 117:/usr/lib/gcc/x86_64-pc-linux-gnu/12/include/g++-v12/bits/alloc_traits.h **** 
 118:/usr/lib/gcc/x86_64-pc-linux-gnu/12/include/g++-v12/bits/alloc_traits.h ****       // Select _A2::difference_type or pointer_traits<_Ptr>::difference_type
 119:/usr/lib/gcc/x86_64-pc-linux-gnu/12/include/g++-v12/bits/alloc_traits.h ****       template<typename _A2, typename _PtrT, typename = void>
 120:/usr/lib/gcc/x86_64-pc-linux-gnu/12/include/g++-v12/bits/alloc_traits.h **** 	struct _Diff
 121:/usr/lib/gcc/x86_64-pc-linux-gnu/12/include/g++-v12/bits/alloc_traits.h **** 	{ using type = typename pointer_traits<_PtrT>::difference_type; };
 122:/usr/lib/gcc/x86_64-pc-linux-gnu/12/include/g++-v12/bits/alloc_traits.h **** 
 123:/usr/lib/gcc/x86_64-pc-linux-gnu/12/include/g++-v12/bits/alloc_traits.h ****       template<typename _A2, typename _PtrT>
 124:/usr/lib/gcc/x86_64-pc-linux-gnu/12/include/g++-v12/bits/alloc_traits.h **** 	struct _Diff<_A2, _PtrT, __void_t<typename _A2::difference_type>>
 125:/usr/lib/gcc/x86_64-pc-linux-gnu/12/include/g++-v12/bits/alloc_traits.h **** 	{ using type = typename _A2::difference_type; };
 126:/usr/lib/gcc/x86_64-pc-linux-gnu/12/include/g++-v12/bits/alloc_traits.h **** 
 127:/usr/lib/gcc/x86_64-pc-linux-gnu/12/include/g++-v12/bits/alloc_traits.h ****       // Select _A2::size_type or make_unsigned<_DiffT>::type
 128:/usr/lib/gcc/x86_64-pc-linux-gnu/12/include/g++-v12/bits/alloc_traits.h ****       template<typename _A2, typename _DiffT, typename = void>
 129:/usr/lib/gcc/x86_64-pc-linux-gnu/12/include/g++-v12/bits/alloc_traits.h **** 	struct _Size : make_unsigned<_DiffT> { };
 130:/usr/lib/gcc/x86_64-pc-linux-gnu/12/include/g++-v12/bits/alloc_traits.h **** 
 131:/usr/lib/gcc/x86_64-pc-linux-gnu/12/include/g++-v12/bits/alloc_traits.h ****       template<typename _A2, typename _DiffT>
 132:/usr/lib/gcc/x86_64-pc-linux-gnu/12/include/g++-v12/bits/alloc_traits.h **** 	struct _Size<_A2, _DiffT, __void_t<typename _A2::size_type>>
 133:/usr/lib/gcc/x86_64-pc-linux-gnu/12/include/g++-v12/bits/alloc_traits.h **** 	{ using type = typename _A2::size_type; };
 134:/usr/lib/gcc/x86_64-pc-linux-gnu/12/include/g++-v12/bits/alloc_traits.h **** 
 135:/usr/lib/gcc/x86_64-pc-linux-gnu/12/include/g++-v12/bits/alloc_traits.h ****     public:
 136:/usr/lib/gcc/x86_64-pc-linux-gnu/12/include/g++-v12/bits/alloc_traits.h ****       /**
 137:/usr/lib/gcc/x86_64-pc-linux-gnu/12/include/g++-v12/bits/alloc_traits.h ****        * @brief   The allocator's const pointer type.
 138:/usr/lib/gcc/x86_64-pc-linux-gnu/12/include/g++-v12/bits/alloc_traits.h ****        *
 139:/usr/lib/gcc/x86_64-pc-linux-gnu/12/include/g++-v12/bits/alloc_traits.h ****        * @c Alloc::const_pointer if that type exists, otherwise
 140:/usr/lib/gcc/x86_64-pc-linux-gnu/12/include/g++-v12/bits/alloc_traits.h ****        * <tt> pointer_traits<pointer>::rebind<const value_type> </tt>
 141:/usr/lib/gcc/x86_64-pc-linux-gnu/12/include/g++-v12/bits/alloc_traits.h ****       */
 142:/usr/lib/gcc/x86_64-pc-linux-gnu/12/include/g++-v12/bits/alloc_traits.h ****       using const_pointer = typename _Ptr<__c_pointer, const value_type>::type;
GAS LISTING /tmp/cce3XYli.s 			page 32


 143:/usr/lib/gcc/x86_64-pc-linux-gnu/12/include/g++-v12/bits/alloc_traits.h **** 
 144:/usr/lib/gcc/x86_64-pc-linux-gnu/12/include/g++-v12/bits/alloc_traits.h ****       /**
 145:/usr/lib/gcc/x86_64-pc-linux-gnu/12/include/g++-v12/bits/alloc_traits.h ****        * @brief   The allocator's void pointer type.
 146:/usr/lib/gcc/x86_64-pc-linux-gnu/12/include/g++-v12/bits/alloc_traits.h ****        *
 147:/usr/lib/gcc/x86_64-pc-linux-gnu/12/include/g++-v12/bits/alloc_traits.h ****        * @c Alloc::void_pointer if that type exists, otherwise
 148:/usr/lib/gcc/x86_64-pc-linux-gnu/12/include/g++-v12/bits/alloc_traits.h ****        * <tt> pointer_traits<pointer>::rebind<void> </tt>
 149:/usr/lib/gcc/x86_64-pc-linux-gnu/12/include/g++-v12/bits/alloc_traits.h ****       */
 150:/usr/lib/gcc/x86_64-pc-linux-gnu/12/include/g++-v12/bits/alloc_traits.h ****       using void_pointer = typename _Ptr<__v_pointer, void>::type;
 151:/usr/lib/gcc/x86_64-pc-linux-gnu/12/include/g++-v12/bits/alloc_traits.h **** 
 152:/usr/lib/gcc/x86_64-pc-linux-gnu/12/include/g++-v12/bits/alloc_traits.h ****       /**
 153:/usr/lib/gcc/x86_64-pc-linux-gnu/12/include/g++-v12/bits/alloc_traits.h ****        * @brief   The allocator's const void pointer type.
 154:/usr/lib/gcc/x86_64-pc-linux-gnu/12/include/g++-v12/bits/alloc_traits.h ****        *
 155:/usr/lib/gcc/x86_64-pc-linux-gnu/12/include/g++-v12/bits/alloc_traits.h ****        * @c Alloc::const_void_pointer if that type exists, otherwise
 156:/usr/lib/gcc/x86_64-pc-linux-gnu/12/include/g++-v12/bits/alloc_traits.h ****        * <tt> pointer_traits<pointer>::rebind<const void> </tt>
 157:/usr/lib/gcc/x86_64-pc-linux-gnu/12/include/g++-v12/bits/alloc_traits.h ****       */
 158:/usr/lib/gcc/x86_64-pc-linux-gnu/12/include/g++-v12/bits/alloc_traits.h ****       using const_void_pointer = typename _Ptr<__cv_pointer, const void>::type;
 159:/usr/lib/gcc/x86_64-pc-linux-gnu/12/include/g++-v12/bits/alloc_traits.h **** 
 160:/usr/lib/gcc/x86_64-pc-linux-gnu/12/include/g++-v12/bits/alloc_traits.h ****       /**
 161:/usr/lib/gcc/x86_64-pc-linux-gnu/12/include/g++-v12/bits/alloc_traits.h ****        * @brief   The allocator's difference type
 162:/usr/lib/gcc/x86_64-pc-linux-gnu/12/include/g++-v12/bits/alloc_traits.h ****        *
 163:/usr/lib/gcc/x86_64-pc-linux-gnu/12/include/g++-v12/bits/alloc_traits.h ****        * @c Alloc::difference_type if that type exists, otherwise
 164:/usr/lib/gcc/x86_64-pc-linux-gnu/12/include/g++-v12/bits/alloc_traits.h ****        * <tt> pointer_traits<pointer>::difference_type </tt>
 165:/usr/lib/gcc/x86_64-pc-linux-gnu/12/include/g++-v12/bits/alloc_traits.h ****       */
 166:/usr/lib/gcc/x86_64-pc-linux-gnu/12/include/g++-v12/bits/alloc_traits.h ****       using difference_type = typename _Diff<_Alloc, pointer>::type;
 167:/usr/lib/gcc/x86_64-pc-linux-gnu/12/include/g++-v12/bits/alloc_traits.h **** 
 168:/usr/lib/gcc/x86_64-pc-linux-gnu/12/include/g++-v12/bits/alloc_traits.h ****       /**
 169:/usr/lib/gcc/x86_64-pc-linux-gnu/12/include/g++-v12/bits/alloc_traits.h ****        * @brief   The allocator's size type
 170:/usr/lib/gcc/x86_64-pc-linux-gnu/12/include/g++-v12/bits/alloc_traits.h ****        *
 171:/usr/lib/gcc/x86_64-pc-linux-gnu/12/include/g++-v12/bits/alloc_traits.h ****        * @c Alloc::size_type if that type exists, otherwise
 172:/usr/lib/gcc/x86_64-pc-linux-gnu/12/include/g++-v12/bits/alloc_traits.h ****        * <tt> make_unsigned<difference_type>::type </tt>
 173:/usr/lib/gcc/x86_64-pc-linux-gnu/12/include/g++-v12/bits/alloc_traits.h ****       */
 174:/usr/lib/gcc/x86_64-pc-linux-gnu/12/include/g++-v12/bits/alloc_traits.h ****       using size_type = typename _Size<_Alloc, difference_type>::type;
 175:/usr/lib/gcc/x86_64-pc-linux-gnu/12/include/g++-v12/bits/alloc_traits.h **** 
 176:/usr/lib/gcc/x86_64-pc-linux-gnu/12/include/g++-v12/bits/alloc_traits.h ****       /**
 177:/usr/lib/gcc/x86_64-pc-linux-gnu/12/include/g++-v12/bits/alloc_traits.h ****        * @brief   How the allocator is propagated on copy assignment
 178:/usr/lib/gcc/x86_64-pc-linux-gnu/12/include/g++-v12/bits/alloc_traits.h ****        *
 179:/usr/lib/gcc/x86_64-pc-linux-gnu/12/include/g++-v12/bits/alloc_traits.h ****        * @c Alloc::propagate_on_container_copy_assignment if that type exists,
 180:/usr/lib/gcc/x86_64-pc-linux-gnu/12/include/g++-v12/bits/alloc_traits.h ****        * otherwise @c false_type
 181:/usr/lib/gcc/x86_64-pc-linux-gnu/12/include/g++-v12/bits/alloc_traits.h ****       */
 182:/usr/lib/gcc/x86_64-pc-linux-gnu/12/include/g++-v12/bits/alloc_traits.h ****       using propagate_on_container_copy_assignment
 183:/usr/lib/gcc/x86_64-pc-linux-gnu/12/include/g++-v12/bits/alloc_traits.h **** 	= __detected_or_t<false_type, __pocca, _Alloc>;
 184:/usr/lib/gcc/x86_64-pc-linux-gnu/12/include/g++-v12/bits/alloc_traits.h **** 
 185:/usr/lib/gcc/x86_64-pc-linux-gnu/12/include/g++-v12/bits/alloc_traits.h ****       /**
 186:/usr/lib/gcc/x86_64-pc-linux-gnu/12/include/g++-v12/bits/alloc_traits.h ****        * @brief   How the allocator is propagated on move assignment
 187:/usr/lib/gcc/x86_64-pc-linux-gnu/12/include/g++-v12/bits/alloc_traits.h ****        *
 188:/usr/lib/gcc/x86_64-pc-linux-gnu/12/include/g++-v12/bits/alloc_traits.h ****        * @c Alloc::propagate_on_container_move_assignment if that type exists,
 189:/usr/lib/gcc/x86_64-pc-linux-gnu/12/include/g++-v12/bits/alloc_traits.h ****        * otherwise @c false_type
 190:/usr/lib/gcc/x86_64-pc-linux-gnu/12/include/g++-v12/bits/alloc_traits.h ****       */
 191:/usr/lib/gcc/x86_64-pc-linux-gnu/12/include/g++-v12/bits/alloc_traits.h ****       using propagate_on_container_move_assignment
 192:/usr/lib/gcc/x86_64-pc-linux-gnu/12/include/g++-v12/bits/alloc_traits.h **** 	= __detected_or_t<false_type, __pocma, _Alloc>;
 193:/usr/lib/gcc/x86_64-pc-linux-gnu/12/include/g++-v12/bits/alloc_traits.h **** 
 194:/usr/lib/gcc/x86_64-pc-linux-gnu/12/include/g++-v12/bits/alloc_traits.h ****       /**
 195:/usr/lib/gcc/x86_64-pc-linux-gnu/12/include/g++-v12/bits/alloc_traits.h ****        * @brief   How the allocator is propagated on swap
 196:/usr/lib/gcc/x86_64-pc-linux-gnu/12/include/g++-v12/bits/alloc_traits.h ****        *
 197:/usr/lib/gcc/x86_64-pc-linux-gnu/12/include/g++-v12/bits/alloc_traits.h ****        * @c Alloc::propagate_on_container_swap if that type exists,
 198:/usr/lib/gcc/x86_64-pc-linux-gnu/12/include/g++-v12/bits/alloc_traits.h ****        * otherwise @c false_type
 199:/usr/lib/gcc/x86_64-pc-linux-gnu/12/include/g++-v12/bits/alloc_traits.h ****       */
GAS LISTING /tmp/cce3XYli.s 			page 33


 200:/usr/lib/gcc/x86_64-pc-linux-gnu/12/include/g++-v12/bits/alloc_traits.h ****       using propagate_on_container_swap
 201:/usr/lib/gcc/x86_64-pc-linux-gnu/12/include/g++-v12/bits/alloc_traits.h **** 	= __detected_or_t<false_type, __pocs, _Alloc>;
 202:/usr/lib/gcc/x86_64-pc-linux-gnu/12/include/g++-v12/bits/alloc_traits.h **** 
 203:/usr/lib/gcc/x86_64-pc-linux-gnu/12/include/g++-v12/bits/alloc_traits.h ****       /**
 204:/usr/lib/gcc/x86_64-pc-linux-gnu/12/include/g++-v12/bits/alloc_traits.h ****        * @brief   Whether all instances of the allocator type compare equal.
 205:/usr/lib/gcc/x86_64-pc-linux-gnu/12/include/g++-v12/bits/alloc_traits.h ****        *
 206:/usr/lib/gcc/x86_64-pc-linux-gnu/12/include/g++-v12/bits/alloc_traits.h ****        * @c Alloc::is_always_equal if that type exists,
 207:/usr/lib/gcc/x86_64-pc-linux-gnu/12/include/g++-v12/bits/alloc_traits.h ****        * otherwise @c is_empty<Alloc>::type
 208:/usr/lib/gcc/x86_64-pc-linux-gnu/12/include/g++-v12/bits/alloc_traits.h ****       */
 209:/usr/lib/gcc/x86_64-pc-linux-gnu/12/include/g++-v12/bits/alloc_traits.h ****       using is_always_equal
 210:/usr/lib/gcc/x86_64-pc-linux-gnu/12/include/g++-v12/bits/alloc_traits.h **** 	= __detected_or_t<typename is_empty<_Alloc>::type, __equal, _Alloc>;
 211:/usr/lib/gcc/x86_64-pc-linux-gnu/12/include/g++-v12/bits/alloc_traits.h **** 
 212:/usr/lib/gcc/x86_64-pc-linux-gnu/12/include/g++-v12/bits/alloc_traits.h ****       template<typename _Tp>
 213:/usr/lib/gcc/x86_64-pc-linux-gnu/12/include/g++-v12/bits/alloc_traits.h **** 	using rebind_alloc = __alloc_rebind<_Alloc, _Tp>;
 214:/usr/lib/gcc/x86_64-pc-linux-gnu/12/include/g++-v12/bits/alloc_traits.h ****       template<typename _Tp>
 215:/usr/lib/gcc/x86_64-pc-linux-gnu/12/include/g++-v12/bits/alloc_traits.h **** 	using rebind_traits = allocator_traits<rebind_alloc<_Tp>>;
 216:/usr/lib/gcc/x86_64-pc-linux-gnu/12/include/g++-v12/bits/alloc_traits.h **** 
 217:/usr/lib/gcc/x86_64-pc-linux-gnu/12/include/g++-v12/bits/alloc_traits.h ****     private:
 218:/usr/lib/gcc/x86_64-pc-linux-gnu/12/include/g++-v12/bits/alloc_traits.h ****       template<typename _Alloc2>
 219:/usr/lib/gcc/x86_64-pc-linux-gnu/12/include/g++-v12/bits/alloc_traits.h **** 	static constexpr auto
 220:/usr/lib/gcc/x86_64-pc-linux-gnu/12/include/g++-v12/bits/alloc_traits.h **** 	_S_allocate(_Alloc2& __a, size_type __n, const_void_pointer __hint, int)
 221:/usr/lib/gcc/x86_64-pc-linux-gnu/12/include/g++-v12/bits/alloc_traits.h **** 	-> decltype(__a.allocate(__n, __hint))
 222:/usr/lib/gcc/x86_64-pc-linux-gnu/12/include/g++-v12/bits/alloc_traits.h **** 	{ return __a.allocate(__n, __hint); }
 223:/usr/lib/gcc/x86_64-pc-linux-gnu/12/include/g++-v12/bits/alloc_traits.h **** 
 224:/usr/lib/gcc/x86_64-pc-linux-gnu/12/include/g++-v12/bits/alloc_traits.h ****       template<typename _Alloc2>
 225:/usr/lib/gcc/x86_64-pc-linux-gnu/12/include/g++-v12/bits/alloc_traits.h **** 	static constexpr pointer
 226:/usr/lib/gcc/x86_64-pc-linux-gnu/12/include/g++-v12/bits/alloc_traits.h **** 	_S_allocate(_Alloc2& __a, size_type __n, const_void_pointer, ...)
 227:/usr/lib/gcc/x86_64-pc-linux-gnu/12/include/g++-v12/bits/alloc_traits.h **** 	{ return __a.allocate(__n); }
 228:/usr/lib/gcc/x86_64-pc-linux-gnu/12/include/g++-v12/bits/alloc_traits.h **** 
 229:/usr/lib/gcc/x86_64-pc-linux-gnu/12/include/g++-v12/bits/alloc_traits.h ****       template<typename _Tp, typename... _Args>
 230:/usr/lib/gcc/x86_64-pc-linux-gnu/12/include/g++-v12/bits/alloc_traits.h **** 	struct __construct_helper
 231:/usr/lib/gcc/x86_64-pc-linux-gnu/12/include/g++-v12/bits/alloc_traits.h **** 	{
 232:/usr/lib/gcc/x86_64-pc-linux-gnu/12/include/g++-v12/bits/alloc_traits.h **** 	  template<typename _Alloc2,
 233:/usr/lib/gcc/x86_64-pc-linux-gnu/12/include/g++-v12/bits/alloc_traits.h **** 	    typename = decltype(std::declval<_Alloc2*>()->construct(
 234:/usr/lib/gcc/x86_64-pc-linux-gnu/12/include/g++-v12/bits/alloc_traits.h **** 		  std::declval<_Tp*>(), std::declval<_Args>()...))>
 235:/usr/lib/gcc/x86_64-pc-linux-gnu/12/include/g++-v12/bits/alloc_traits.h **** 	    static true_type __test(int);
 236:/usr/lib/gcc/x86_64-pc-linux-gnu/12/include/g++-v12/bits/alloc_traits.h **** 
 237:/usr/lib/gcc/x86_64-pc-linux-gnu/12/include/g++-v12/bits/alloc_traits.h **** 	  template<typename>
 238:/usr/lib/gcc/x86_64-pc-linux-gnu/12/include/g++-v12/bits/alloc_traits.h **** 	    static false_type __test(...);
 239:/usr/lib/gcc/x86_64-pc-linux-gnu/12/include/g++-v12/bits/alloc_traits.h **** 
 240:/usr/lib/gcc/x86_64-pc-linux-gnu/12/include/g++-v12/bits/alloc_traits.h **** 	  using type = decltype(__test<_Alloc>(0));
 241:/usr/lib/gcc/x86_64-pc-linux-gnu/12/include/g++-v12/bits/alloc_traits.h **** 	};
 242:/usr/lib/gcc/x86_64-pc-linux-gnu/12/include/g++-v12/bits/alloc_traits.h **** 
 243:/usr/lib/gcc/x86_64-pc-linux-gnu/12/include/g++-v12/bits/alloc_traits.h ****       template<typename _Tp, typename... _Args>
 244:/usr/lib/gcc/x86_64-pc-linux-gnu/12/include/g++-v12/bits/alloc_traits.h **** 	using __has_construct
 245:/usr/lib/gcc/x86_64-pc-linux-gnu/12/include/g++-v12/bits/alloc_traits.h **** 	  = typename __construct_helper<_Tp, _Args...>::type;
 246:/usr/lib/gcc/x86_64-pc-linux-gnu/12/include/g++-v12/bits/alloc_traits.h **** 
 247:/usr/lib/gcc/x86_64-pc-linux-gnu/12/include/g++-v12/bits/alloc_traits.h ****       template<typename _Tp, typename... _Args>
 248:/usr/lib/gcc/x86_64-pc-linux-gnu/12/include/g++-v12/bits/alloc_traits.h **** 	static _GLIBCXX14_CONSTEXPR _Require<__has_construct<_Tp, _Args...>>
 249:/usr/lib/gcc/x86_64-pc-linux-gnu/12/include/g++-v12/bits/alloc_traits.h **** 	_S_construct(_Alloc& __a, _Tp* __p, _Args&&... __args)
 250:/usr/lib/gcc/x86_64-pc-linux-gnu/12/include/g++-v12/bits/alloc_traits.h **** 	noexcept(noexcept(__a.construct(__p, std::forward<_Args>(__args)...)))
 251:/usr/lib/gcc/x86_64-pc-linux-gnu/12/include/g++-v12/bits/alloc_traits.h **** 	{ __a.construct(__p, std::forward<_Args>(__args)...); }
 252:/usr/lib/gcc/x86_64-pc-linux-gnu/12/include/g++-v12/bits/alloc_traits.h **** 
 253:/usr/lib/gcc/x86_64-pc-linux-gnu/12/include/g++-v12/bits/alloc_traits.h ****       template<typename _Tp, typename... _Args>
 254:/usr/lib/gcc/x86_64-pc-linux-gnu/12/include/g++-v12/bits/alloc_traits.h **** 	static _GLIBCXX14_CONSTEXPR
 255:/usr/lib/gcc/x86_64-pc-linux-gnu/12/include/g++-v12/bits/alloc_traits.h **** 	_Require<__and_<__not_<__has_construct<_Tp, _Args...>>,
 256:/usr/lib/gcc/x86_64-pc-linux-gnu/12/include/g++-v12/bits/alloc_traits.h **** 			       is_constructible<_Tp, _Args...>>>
GAS LISTING /tmp/cce3XYli.s 			page 34


 257:/usr/lib/gcc/x86_64-pc-linux-gnu/12/include/g++-v12/bits/alloc_traits.h **** 	_S_construct(_Alloc&, _Tp* __p, _Args&&... __args)
 258:/usr/lib/gcc/x86_64-pc-linux-gnu/12/include/g++-v12/bits/alloc_traits.h **** 	noexcept(std::is_nothrow_constructible<_Tp, _Args...>::value)
 259:/usr/lib/gcc/x86_64-pc-linux-gnu/12/include/g++-v12/bits/alloc_traits.h **** 	{
 260:/usr/lib/gcc/x86_64-pc-linux-gnu/12/include/g++-v12/bits/alloc_traits.h **** #if __cplusplus <= 201703L
 261:/usr/lib/gcc/x86_64-pc-linux-gnu/12/include/g++-v12/bits/alloc_traits.h **** 	  ::new((void*)__p) _Tp(std::forward<_Args>(__args)...);
 262:/usr/lib/gcc/x86_64-pc-linux-gnu/12/include/g++-v12/bits/alloc_traits.h **** #else
 263:/usr/lib/gcc/x86_64-pc-linux-gnu/12/include/g++-v12/bits/alloc_traits.h **** 	  std::construct_at(__p, std::forward<_Args>(__args)...);
 264:/usr/lib/gcc/x86_64-pc-linux-gnu/12/include/g++-v12/bits/alloc_traits.h **** #endif
 265:/usr/lib/gcc/x86_64-pc-linux-gnu/12/include/g++-v12/bits/alloc_traits.h **** 	}
 266:/usr/lib/gcc/x86_64-pc-linux-gnu/12/include/g++-v12/bits/alloc_traits.h **** 
 267:/usr/lib/gcc/x86_64-pc-linux-gnu/12/include/g++-v12/bits/alloc_traits.h ****       template<typename _Alloc2, typename _Tp>
 268:/usr/lib/gcc/x86_64-pc-linux-gnu/12/include/g++-v12/bits/alloc_traits.h **** 	static _GLIBCXX14_CONSTEXPR auto
 269:/usr/lib/gcc/x86_64-pc-linux-gnu/12/include/g++-v12/bits/alloc_traits.h **** 	_S_destroy(_Alloc2& __a, _Tp* __p, int)
 270:/usr/lib/gcc/x86_64-pc-linux-gnu/12/include/g++-v12/bits/alloc_traits.h **** 	noexcept(noexcept(__a.destroy(__p)))
 271:/usr/lib/gcc/x86_64-pc-linux-gnu/12/include/g++-v12/bits/alloc_traits.h **** 	-> decltype(__a.destroy(__p))
 272:/usr/lib/gcc/x86_64-pc-linux-gnu/12/include/g++-v12/bits/alloc_traits.h **** 	{ __a.destroy(__p); }
 273:/usr/lib/gcc/x86_64-pc-linux-gnu/12/include/g++-v12/bits/alloc_traits.h **** 
 274:/usr/lib/gcc/x86_64-pc-linux-gnu/12/include/g++-v12/bits/alloc_traits.h ****       template<typename _Alloc2, typename _Tp>
 275:/usr/lib/gcc/x86_64-pc-linux-gnu/12/include/g++-v12/bits/alloc_traits.h **** 	static _GLIBCXX14_CONSTEXPR void
 276:/usr/lib/gcc/x86_64-pc-linux-gnu/12/include/g++-v12/bits/alloc_traits.h **** 	_S_destroy(_Alloc2&, _Tp* __p, ...)
 277:/usr/lib/gcc/x86_64-pc-linux-gnu/12/include/g++-v12/bits/alloc_traits.h **** 	noexcept(std::is_nothrow_destructible<_Tp>::value)
 278:/usr/lib/gcc/x86_64-pc-linux-gnu/12/include/g++-v12/bits/alloc_traits.h **** 	{ std::_Destroy(__p); }
 279:/usr/lib/gcc/x86_64-pc-linux-gnu/12/include/g++-v12/bits/alloc_traits.h **** 
 280:/usr/lib/gcc/x86_64-pc-linux-gnu/12/include/g++-v12/bits/alloc_traits.h ****       template<typename _Alloc2>
 281:/usr/lib/gcc/x86_64-pc-linux-gnu/12/include/g++-v12/bits/alloc_traits.h **** 	static constexpr auto
 282:/usr/lib/gcc/x86_64-pc-linux-gnu/12/include/g++-v12/bits/alloc_traits.h **** 	_S_max_size(_Alloc2& __a, int)
 283:/usr/lib/gcc/x86_64-pc-linux-gnu/12/include/g++-v12/bits/alloc_traits.h **** 	-> decltype(__a.max_size())
 284:/usr/lib/gcc/x86_64-pc-linux-gnu/12/include/g++-v12/bits/alloc_traits.h **** 	{ return __a.max_size(); }
 285:/usr/lib/gcc/x86_64-pc-linux-gnu/12/include/g++-v12/bits/alloc_traits.h **** 
 286:/usr/lib/gcc/x86_64-pc-linux-gnu/12/include/g++-v12/bits/alloc_traits.h ****       template<typename _Alloc2>
 287:/usr/lib/gcc/x86_64-pc-linux-gnu/12/include/g++-v12/bits/alloc_traits.h **** 	static constexpr size_type
 288:/usr/lib/gcc/x86_64-pc-linux-gnu/12/include/g++-v12/bits/alloc_traits.h **** 	_S_max_size(_Alloc2&, ...)
 289:/usr/lib/gcc/x86_64-pc-linux-gnu/12/include/g++-v12/bits/alloc_traits.h **** 	{
 290:/usr/lib/gcc/x86_64-pc-linux-gnu/12/include/g++-v12/bits/alloc_traits.h **** 	  // _GLIBCXX_RESOLVE_LIB_DEFECTS
 291:/usr/lib/gcc/x86_64-pc-linux-gnu/12/include/g++-v12/bits/alloc_traits.h **** 	  // 2466. allocator_traits::max_size() default behavior is incorrect
 292:/usr/lib/gcc/x86_64-pc-linux-gnu/12/include/g++-v12/bits/alloc_traits.h **** 	  return __gnu_cxx::__numeric_traits<size_type>::__max
 293:/usr/lib/gcc/x86_64-pc-linux-gnu/12/include/g++-v12/bits/alloc_traits.h **** 	    / sizeof(value_type);
 294:/usr/lib/gcc/x86_64-pc-linux-gnu/12/include/g++-v12/bits/alloc_traits.h **** 	}
 295:/usr/lib/gcc/x86_64-pc-linux-gnu/12/include/g++-v12/bits/alloc_traits.h **** 
 296:/usr/lib/gcc/x86_64-pc-linux-gnu/12/include/g++-v12/bits/alloc_traits.h ****       template<typename _Alloc2>
 297:/usr/lib/gcc/x86_64-pc-linux-gnu/12/include/g++-v12/bits/alloc_traits.h **** 	static constexpr auto
 298:/usr/lib/gcc/x86_64-pc-linux-gnu/12/include/g++-v12/bits/alloc_traits.h **** 	_S_select(_Alloc2& __a, int)
 299:/usr/lib/gcc/x86_64-pc-linux-gnu/12/include/g++-v12/bits/alloc_traits.h **** 	-> decltype(__a.select_on_container_copy_construction())
 300:/usr/lib/gcc/x86_64-pc-linux-gnu/12/include/g++-v12/bits/alloc_traits.h **** 	{ return __a.select_on_container_copy_construction(); }
 301:/usr/lib/gcc/x86_64-pc-linux-gnu/12/include/g++-v12/bits/alloc_traits.h **** 
 302:/usr/lib/gcc/x86_64-pc-linux-gnu/12/include/g++-v12/bits/alloc_traits.h ****       template<typename _Alloc2>
 303:/usr/lib/gcc/x86_64-pc-linux-gnu/12/include/g++-v12/bits/alloc_traits.h **** 	static constexpr _Alloc2
 304:/usr/lib/gcc/x86_64-pc-linux-gnu/12/include/g++-v12/bits/alloc_traits.h **** 	_S_select(_Alloc2& __a, ...)
 305:/usr/lib/gcc/x86_64-pc-linux-gnu/12/include/g++-v12/bits/alloc_traits.h **** 	{ return __a; }
 306:/usr/lib/gcc/x86_64-pc-linux-gnu/12/include/g++-v12/bits/alloc_traits.h **** 
 307:/usr/lib/gcc/x86_64-pc-linux-gnu/12/include/g++-v12/bits/alloc_traits.h ****     public:
 308:/usr/lib/gcc/x86_64-pc-linux-gnu/12/include/g++-v12/bits/alloc_traits.h **** 
 309:/usr/lib/gcc/x86_64-pc-linux-gnu/12/include/g++-v12/bits/alloc_traits.h ****       /**
 310:/usr/lib/gcc/x86_64-pc-linux-gnu/12/include/g++-v12/bits/alloc_traits.h ****        *  @brief  Allocate memory.
 311:/usr/lib/gcc/x86_64-pc-linux-gnu/12/include/g++-v12/bits/alloc_traits.h ****        *  @param  __a  An allocator.
 312:/usr/lib/gcc/x86_64-pc-linux-gnu/12/include/g++-v12/bits/alloc_traits.h ****        *  @param  __n  The number of objects to allocate space for.
 313:/usr/lib/gcc/x86_64-pc-linux-gnu/12/include/g++-v12/bits/alloc_traits.h ****        *
GAS LISTING /tmp/cce3XYli.s 			page 35


 314:/usr/lib/gcc/x86_64-pc-linux-gnu/12/include/g++-v12/bits/alloc_traits.h ****        *  Calls @c a.allocate(n)
 315:/usr/lib/gcc/x86_64-pc-linux-gnu/12/include/g++-v12/bits/alloc_traits.h ****       */
 316:/usr/lib/gcc/x86_64-pc-linux-gnu/12/include/g++-v12/bits/alloc_traits.h ****       _GLIBCXX_NODISCARD static _GLIBCXX20_CONSTEXPR pointer
 317:/usr/lib/gcc/x86_64-pc-linux-gnu/12/include/g++-v12/bits/alloc_traits.h ****       allocate(_Alloc& __a, size_type __n)
 318:/usr/lib/gcc/x86_64-pc-linux-gnu/12/include/g++-v12/bits/alloc_traits.h ****       { return __a.allocate(__n); }
 319:/usr/lib/gcc/x86_64-pc-linux-gnu/12/include/g++-v12/bits/alloc_traits.h **** 
 320:/usr/lib/gcc/x86_64-pc-linux-gnu/12/include/g++-v12/bits/alloc_traits.h ****       /**
 321:/usr/lib/gcc/x86_64-pc-linux-gnu/12/include/g++-v12/bits/alloc_traits.h ****        *  @brief  Allocate memory.
 322:/usr/lib/gcc/x86_64-pc-linux-gnu/12/include/g++-v12/bits/alloc_traits.h ****        *  @param  __a  An allocator.
 323:/usr/lib/gcc/x86_64-pc-linux-gnu/12/include/g++-v12/bits/alloc_traits.h ****        *  @param  __n  The number of objects to allocate space for.
 324:/usr/lib/gcc/x86_64-pc-linux-gnu/12/include/g++-v12/bits/alloc_traits.h ****        *  @param  __hint Aid to locality.
 325:/usr/lib/gcc/x86_64-pc-linux-gnu/12/include/g++-v12/bits/alloc_traits.h ****        *  @return Memory of suitable size and alignment for @a n objects
 326:/usr/lib/gcc/x86_64-pc-linux-gnu/12/include/g++-v12/bits/alloc_traits.h ****        *          of type @c value_type
 327:/usr/lib/gcc/x86_64-pc-linux-gnu/12/include/g++-v12/bits/alloc_traits.h ****        *
 328:/usr/lib/gcc/x86_64-pc-linux-gnu/12/include/g++-v12/bits/alloc_traits.h ****        *  Returns <tt> a.allocate(n, hint) </tt> if that expression is
 329:/usr/lib/gcc/x86_64-pc-linux-gnu/12/include/g++-v12/bits/alloc_traits.h ****        *  well-formed, otherwise returns @c a.allocate(n)
 330:/usr/lib/gcc/x86_64-pc-linux-gnu/12/include/g++-v12/bits/alloc_traits.h ****       */
 331:/usr/lib/gcc/x86_64-pc-linux-gnu/12/include/g++-v12/bits/alloc_traits.h ****       _GLIBCXX_NODISCARD static _GLIBCXX20_CONSTEXPR pointer
 332:/usr/lib/gcc/x86_64-pc-linux-gnu/12/include/g++-v12/bits/alloc_traits.h ****       allocate(_Alloc& __a, size_type __n, const_void_pointer __hint)
 333:/usr/lib/gcc/x86_64-pc-linux-gnu/12/include/g++-v12/bits/alloc_traits.h ****       { return _S_allocate(__a, __n, __hint, 0); }
 334:/usr/lib/gcc/x86_64-pc-linux-gnu/12/include/g++-v12/bits/alloc_traits.h **** 
 335:/usr/lib/gcc/x86_64-pc-linux-gnu/12/include/g++-v12/bits/alloc_traits.h ****       /**
 336:/usr/lib/gcc/x86_64-pc-linux-gnu/12/include/g++-v12/bits/alloc_traits.h ****        *  @brief  Deallocate memory.
 337:/usr/lib/gcc/x86_64-pc-linux-gnu/12/include/g++-v12/bits/alloc_traits.h ****        *  @param  __a  An allocator.
 338:/usr/lib/gcc/x86_64-pc-linux-gnu/12/include/g++-v12/bits/alloc_traits.h ****        *  @param  __p  Pointer to the memory to deallocate.
 339:/usr/lib/gcc/x86_64-pc-linux-gnu/12/include/g++-v12/bits/alloc_traits.h ****        *  @param  __n  The number of objects space was allocated for.
 340:/usr/lib/gcc/x86_64-pc-linux-gnu/12/include/g++-v12/bits/alloc_traits.h ****        *
 341:/usr/lib/gcc/x86_64-pc-linux-gnu/12/include/g++-v12/bits/alloc_traits.h ****        *  Calls <tt> a.deallocate(p, n) </tt>
 342:/usr/lib/gcc/x86_64-pc-linux-gnu/12/include/g++-v12/bits/alloc_traits.h ****       */
 343:/usr/lib/gcc/x86_64-pc-linux-gnu/12/include/g++-v12/bits/alloc_traits.h ****       static _GLIBCXX20_CONSTEXPR void
 344:/usr/lib/gcc/x86_64-pc-linux-gnu/12/include/g++-v12/bits/alloc_traits.h ****       deallocate(_Alloc& __a, pointer __p, size_type __n)
 345:/usr/lib/gcc/x86_64-pc-linux-gnu/12/include/g++-v12/bits/alloc_traits.h ****       { __a.deallocate(__p, __n); }
 346:/usr/lib/gcc/x86_64-pc-linux-gnu/12/include/g++-v12/bits/alloc_traits.h **** 
 347:/usr/lib/gcc/x86_64-pc-linux-gnu/12/include/g++-v12/bits/alloc_traits.h ****       /**
 348:/usr/lib/gcc/x86_64-pc-linux-gnu/12/include/g++-v12/bits/alloc_traits.h ****        *  @brief  Construct an object of type `_Tp`
 349:/usr/lib/gcc/x86_64-pc-linux-gnu/12/include/g++-v12/bits/alloc_traits.h ****        *  @param  __a  An allocator.
 350:/usr/lib/gcc/x86_64-pc-linux-gnu/12/include/g++-v12/bits/alloc_traits.h ****        *  @param  __p  Pointer to memory of suitable size and alignment for Tp
 351:/usr/lib/gcc/x86_64-pc-linux-gnu/12/include/g++-v12/bits/alloc_traits.h ****        *  @param  __args Constructor arguments.
 352:/usr/lib/gcc/x86_64-pc-linux-gnu/12/include/g++-v12/bits/alloc_traits.h ****        *
 353:/usr/lib/gcc/x86_64-pc-linux-gnu/12/include/g++-v12/bits/alloc_traits.h ****        *  Calls <tt> __a.construct(__p, std::forward<Args>(__args)...) </tt>
 354:/usr/lib/gcc/x86_64-pc-linux-gnu/12/include/g++-v12/bits/alloc_traits.h ****        *  if that expression is well-formed, otherwise uses placement-new
 355:/usr/lib/gcc/x86_64-pc-linux-gnu/12/include/g++-v12/bits/alloc_traits.h ****        *  to construct an object of type @a _Tp at location @a __p from the
 356:/usr/lib/gcc/x86_64-pc-linux-gnu/12/include/g++-v12/bits/alloc_traits.h ****        *  arguments @a __args...
 357:/usr/lib/gcc/x86_64-pc-linux-gnu/12/include/g++-v12/bits/alloc_traits.h ****       */
 358:/usr/lib/gcc/x86_64-pc-linux-gnu/12/include/g++-v12/bits/alloc_traits.h ****       template<typename _Tp, typename... _Args>
 359:/usr/lib/gcc/x86_64-pc-linux-gnu/12/include/g++-v12/bits/alloc_traits.h **** 	static _GLIBCXX20_CONSTEXPR auto
 360:/usr/lib/gcc/x86_64-pc-linux-gnu/12/include/g++-v12/bits/alloc_traits.h **** 	construct(_Alloc& __a, _Tp* __p, _Args&&... __args)
 361:/usr/lib/gcc/x86_64-pc-linux-gnu/12/include/g++-v12/bits/alloc_traits.h **** 	noexcept(noexcept(_S_construct(__a, __p,
 362:/usr/lib/gcc/x86_64-pc-linux-gnu/12/include/g++-v12/bits/alloc_traits.h **** 				       std::forward<_Args>(__args)...)))
 363:/usr/lib/gcc/x86_64-pc-linux-gnu/12/include/g++-v12/bits/alloc_traits.h **** 	-> decltype(_S_construct(__a, __p, std::forward<_Args>(__args)...))
 364:/usr/lib/gcc/x86_64-pc-linux-gnu/12/include/g++-v12/bits/alloc_traits.h **** 	{ _S_construct(__a, __p, std::forward<_Args>(__args)...); }
 365:/usr/lib/gcc/x86_64-pc-linux-gnu/12/include/g++-v12/bits/alloc_traits.h **** 
 366:/usr/lib/gcc/x86_64-pc-linux-gnu/12/include/g++-v12/bits/alloc_traits.h ****       /**
 367:/usr/lib/gcc/x86_64-pc-linux-gnu/12/include/g++-v12/bits/alloc_traits.h ****        *  @brief  Destroy an object of type @a _Tp
 368:/usr/lib/gcc/x86_64-pc-linux-gnu/12/include/g++-v12/bits/alloc_traits.h ****        *  @param  __a  An allocator.
 369:/usr/lib/gcc/x86_64-pc-linux-gnu/12/include/g++-v12/bits/alloc_traits.h ****        *  @param  __p  Pointer to the object to destroy
 370:/usr/lib/gcc/x86_64-pc-linux-gnu/12/include/g++-v12/bits/alloc_traits.h ****        *
GAS LISTING /tmp/cce3XYli.s 			page 36


 371:/usr/lib/gcc/x86_64-pc-linux-gnu/12/include/g++-v12/bits/alloc_traits.h ****        *  Calls @c __a.destroy(__p) if that expression is well-formed,
 372:/usr/lib/gcc/x86_64-pc-linux-gnu/12/include/g++-v12/bits/alloc_traits.h ****        *  otherwise calls @c __p->~_Tp()
 373:/usr/lib/gcc/x86_64-pc-linux-gnu/12/include/g++-v12/bits/alloc_traits.h ****       */
 374:/usr/lib/gcc/x86_64-pc-linux-gnu/12/include/g++-v12/bits/alloc_traits.h ****       template<typename _Tp>
 375:/usr/lib/gcc/x86_64-pc-linux-gnu/12/include/g++-v12/bits/alloc_traits.h **** 	static _GLIBCXX20_CONSTEXPR void
 376:/usr/lib/gcc/x86_64-pc-linux-gnu/12/include/g++-v12/bits/alloc_traits.h **** 	destroy(_Alloc& __a, _Tp* __p)
 377:/usr/lib/gcc/x86_64-pc-linux-gnu/12/include/g++-v12/bits/alloc_traits.h **** 	noexcept(noexcept(_S_destroy(__a, __p, 0)))
 378:/usr/lib/gcc/x86_64-pc-linux-gnu/12/include/g++-v12/bits/alloc_traits.h **** 	{ _S_destroy(__a, __p, 0); }
 379:/usr/lib/gcc/x86_64-pc-linux-gnu/12/include/g++-v12/bits/alloc_traits.h **** 
 380:/usr/lib/gcc/x86_64-pc-linux-gnu/12/include/g++-v12/bits/alloc_traits.h ****       /**
 381:/usr/lib/gcc/x86_64-pc-linux-gnu/12/include/g++-v12/bits/alloc_traits.h ****        *  @brief  The maximum supported allocation size
 382:/usr/lib/gcc/x86_64-pc-linux-gnu/12/include/g++-v12/bits/alloc_traits.h ****        *  @param  __a  An allocator.
 383:/usr/lib/gcc/x86_64-pc-linux-gnu/12/include/g++-v12/bits/alloc_traits.h ****        *  @return @c __a.max_size() or @c numeric_limits<size_type>::max()
 384:/usr/lib/gcc/x86_64-pc-linux-gnu/12/include/g++-v12/bits/alloc_traits.h ****        *
 385:/usr/lib/gcc/x86_64-pc-linux-gnu/12/include/g++-v12/bits/alloc_traits.h ****        *  Returns @c __a.max_size() if that expression is well-formed,
 386:/usr/lib/gcc/x86_64-pc-linux-gnu/12/include/g++-v12/bits/alloc_traits.h ****        *  otherwise returns @c numeric_limits<size_type>::max()
 387:/usr/lib/gcc/x86_64-pc-linux-gnu/12/include/g++-v12/bits/alloc_traits.h ****       */
 388:/usr/lib/gcc/x86_64-pc-linux-gnu/12/include/g++-v12/bits/alloc_traits.h ****       static _GLIBCXX20_CONSTEXPR size_type
 389:/usr/lib/gcc/x86_64-pc-linux-gnu/12/include/g++-v12/bits/alloc_traits.h ****       max_size(const _Alloc& __a) noexcept
 390:/usr/lib/gcc/x86_64-pc-linux-gnu/12/include/g++-v12/bits/alloc_traits.h ****       { return _S_max_size(__a, 0); }
 391:/usr/lib/gcc/x86_64-pc-linux-gnu/12/include/g++-v12/bits/alloc_traits.h **** 
 392:/usr/lib/gcc/x86_64-pc-linux-gnu/12/include/g++-v12/bits/alloc_traits.h ****       /**
 393:/usr/lib/gcc/x86_64-pc-linux-gnu/12/include/g++-v12/bits/alloc_traits.h ****        *  @brief  Obtain an allocator to use when copying a container.
 394:/usr/lib/gcc/x86_64-pc-linux-gnu/12/include/g++-v12/bits/alloc_traits.h ****        *  @param  __rhs  An allocator.
 395:/usr/lib/gcc/x86_64-pc-linux-gnu/12/include/g++-v12/bits/alloc_traits.h ****        *  @return @c __rhs.select_on_container_copy_construction() or @a __rhs
 396:/usr/lib/gcc/x86_64-pc-linux-gnu/12/include/g++-v12/bits/alloc_traits.h ****        *
 397:/usr/lib/gcc/x86_64-pc-linux-gnu/12/include/g++-v12/bits/alloc_traits.h ****        *  Returns @c __rhs.select_on_container_copy_construction() if that
 398:/usr/lib/gcc/x86_64-pc-linux-gnu/12/include/g++-v12/bits/alloc_traits.h ****        *  expression is well-formed, otherwise returns @a __rhs
 399:/usr/lib/gcc/x86_64-pc-linux-gnu/12/include/g++-v12/bits/alloc_traits.h ****       */
 400:/usr/lib/gcc/x86_64-pc-linux-gnu/12/include/g++-v12/bits/alloc_traits.h ****       static _GLIBCXX20_CONSTEXPR _Alloc
 401:/usr/lib/gcc/x86_64-pc-linux-gnu/12/include/g++-v12/bits/alloc_traits.h ****       select_on_container_copy_construction(const _Alloc& __rhs)
 402:/usr/lib/gcc/x86_64-pc-linux-gnu/12/include/g++-v12/bits/alloc_traits.h ****       { return _S_select(__rhs, 0); }
 403:/usr/lib/gcc/x86_64-pc-linux-gnu/12/include/g++-v12/bits/alloc_traits.h ****     };
 404:/usr/lib/gcc/x86_64-pc-linux-gnu/12/include/g++-v12/bits/alloc_traits.h **** 
 405:/usr/lib/gcc/x86_64-pc-linux-gnu/12/include/g++-v12/bits/alloc_traits.h **** #if __cplusplus > 201703L
 406:/usr/lib/gcc/x86_64-pc-linux-gnu/12/include/g++-v12/bits/alloc_traits.h **** # define __cpp_lib_constexpr_dynamic_alloc 201907L
 407:/usr/lib/gcc/x86_64-pc-linux-gnu/12/include/g++-v12/bits/alloc_traits.h **** #endif
 408:/usr/lib/gcc/x86_64-pc-linux-gnu/12/include/g++-v12/bits/alloc_traits.h **** 
 409:/usr/lib/gcc/x86_64-pc-linux-gnu/12/include/g++-v12/bits/alloc_traits.h ****   /// Partial specialization for std::allocator.
 410:/usr/lib/gcc/x86_64-pc-linux-gnu/12/include/g++-v12/bits/alloc_traits.h ****   template<typename _Tp>
 411:/usr/lib/gcc/x86_64-pc-linux-gnu/12/include/g++-v12/bits/alloc_traits.h ****     struct allocator_traits<allocator<_Tp>>
 412:/usr/lib/gcc/x86_64-pc-linux-gnu/12/include/g++-v12/bits/alloc_traits.h ****     {
 413:/usr/lib/gcc/x86_64-pc-linux-gnu/12/include/g++-v12/bits/alloc_traits.h ****       /// The allocator type
 414:/usr/lib/gcc/x86_64-pc-linux-gnu/12/include/g++-v12/bits/alloc_traits.h ****       using allocator_type = allocator<_Tp>;
 415:/usr/lib/gcc/x86_64-pc-linux-gnu/12/include/g++-v12/bits/alloc_traits.h **** 
 416:/usr/lib/gcc/x86_64-pc-linux-gnu/12/include/g++-v12/bits/alloc_traits.h ****       /// The allocated type
 417:/usr/lib/gcc/x86_64-pc-linux-gnu/12/include/g++-v12/bits/alloc_traits.h ****       using value_type = _Tp;
 418:/usr/lib/gcc/x86_64-pc-linux-gnu/12/include/g++-v12/bits/alloc_traits.h **** 
 419:/usr/lib/gcc/x86_64-pc-linux-gnu/12/include/g++-v12/bits/alloc_traits.h ****       /// The allocator's pointer type.
 420:/usr/lib/gcc/x86_64-pc-linux-gnu/12/include/g++-v12/bits/alloc_traits.h ****       using pointer = _Tp*;
 421:/usr/lib/gcc/x86_64-pc-linux-gnu/12/include/g++-v12/bits/alloc_traits.h **** 
 422:/usr/lib/gcc/x86_64-pc-linux-gnu/12/include/g++-v12/bits/alloc_traits.h ****       /// The allocator's const pointer type.
 423:/usr/lib/gcc/x86_64-pc-linux-gnu/12/include/g++-v12/bits/alloc_traits.h ****       using const_pointer = const _Tp*;
 424:/usr/lib/gcc/x86_64-pc-linux-gnu/12/include/g++-v12/bits/alloc_traits.h **** 
 425:/usr/lib/gcc/x86_64-pc-linux-gnu/12/include/g++-v12/bits/alloc_traits.h ****       /// The allocator's void pointer type.
 426:/usr/lib/gcc/x86_64-pc-linux-gnu/12/include/g++-v12/bits/alloc_traits.h ****       using void_pointer = void*;
 427:/usr/lib/gcc/x86_64-pc-linux-gnu/12/include/g++-v12/bits/alloc_traits.h **** 
GAS LISTING /tmp/cce3XYli.s 			page 37


 428:/usr/lib/gcc/x86_64-pc-linux-gnu/12/include/g++-v12/bits/alloc_traits.h ****       /// The allocator's const void pointer type.
 429:/usr/lib/gcc/x86_64-pc-linux-gnu/12/include/g++-v12/bits/alloc_traits.h ****       using const_void_pointer = const void*;
 430:/usr/lib/gcc/x86_64-pc-linux-gnu/12/include/g++-v12/bits/alloc_traits.h **** 
 431:/usr/lib/gcc/x86_64-pc-linux-gnu/12/include/g++-v12/bits/alloc_traits.h ****       /// The allocator's difference type
 432:/usr/lib/gcc/x86_64-pc-linux-gnu/12/include/g++-v12/bits/alloc_traits.h ****       using difference_type = std::ptrdiff_t;
 433:/usr/lib/gcc/x86_64-pc-linux-gnu/12/include/g++-v12/bits/alloc_traits.h **** 
 434:/usr/lib/gcc/x86_64-pc-linux-gnu/12/include/g++-v12/bits/alloc_traits.h ****       /// The allocator's size type
 435:/usr/lib/gcc/x86_64-pc-linux-gnu/12/include/g++-v12/bits/alloc_traits.h ****       using size_type = std::size_t;
 436:/usr/lib/gcc/x86_64-pc-linux-gnu/12/include/g++-v12/bits/alloc_traits.h **** 
 437:/usr/lib/gcc/x86_64-pc-linux-gnu/12/include/g++-v12/bits/alloc_traits.h ****       /// How the allocator is propagated on copy assignment
 438:/usr/lib/gcc/x86_64-pc-linux-gnu/12/include/g++-v12/bits/alloc_traits.h ****       using propagate_on_container_copy_assignment = false_type;
 439:/usr/lib/gcc/x86_64-pc-linux-gnu/12/include/g++-v12/bits/alloc_traits.h **** 
 440:/usr/lib/gcc/x86_64-pc-linux-gnu/12/include/g++-v12/bits/alloc_traits.h ****       /// How the allocator is propagated on move assignment
 441:/usr/lib/gcc/x86_64-pc-linux-gnu/12/include/g++-v12/bits/alloc_traits.h ****       using propagate_on_container_move_assignment = true_type;
 442:/usr/lib/gcc/x86_64-pc-linux-gnu/12/include/g++-v12/bits/alloc_traits.h **** 
 443:/usr/lib/gcc/x86_64-pc-linux-gnu/12/include/g++-v12/bits/alloc_traits.h ****       /// How the allocator is propagated on swap
 444:/usr/lib/gcc/x86_64-pc-linux-gnu/12/include/g++-v12/bits/alloc_traits.h ****       using propagate_on_container_swap = false_type;
 445:/usr/lib/gcc/x86_64-pc-linux-gnu/12/include/g++-v12/bits/alloc_traits.h **** 
 446:/usr/lib/gcc/x86_64-pc-linux-gnu/12/include/g++-v12/bits/alloc_traits.h ****       /// Whether all instances of the allocator type compare equal.
 447:/usr/lib/gcc/x86_64-pc-linux-gnu/12/include/g++-v12/bits/alloc_traits.h ****       using is_always_equal = true_type;
 448:/usr/lib/gcc/x86_64-pc-linux-gnu/12/include/g++-v12/bits/alloc_traits.h **** 
 449:/usr/lib/gcc/x86_64-pc-linux-gnu/12/include/g++-v12/bits/alloc_traits.h ****       template<typename _Up>
 450:/usr/lib/gcc/x86_64-pc-linux-gnu/12/include/g++-v12/bits/alloc_traits.h **** 	using rebind_alloc = allocator<_Up>;
 451:/usr/lib/gcc/x86_64-pc-linux-gnu/12/include/g++-v12/bits/alloc_traits.h **** 
 452:/usr/lib/gcc/x86_64-pc-linux-gnu/12/include/g++-v12/bits/alloc_traits.h ****       template<typename _Up>
 453:/usr/lib/gcc/x86_64-pc-linux-gnu/12/include/g++-v12/bits/alloc_traits.h **** 	using rebind_traits = allocator_traits<allocator<_Up>>;
 454:/usr/lib/gcc/x86_64-pc-linux-gnu/12/include/g++-v12/bits/alloc_traits.h **** 
 455:/usr/lib/gcc/x86_64-pc-linux-gnu/12/include/g++-v12/bits/alloc_traits.h ****       /**
 456:/usr/lib/gcc/x86_64-pc-linux-gnu/12/include/g++-v12/bits/alloc_traits.h ****        *  @brief  Allocate memory.
 457:/usr/lib/gcc/x86_64-pc-linux-gnu/12/include/g++-v12/bits/alloc_traits.h ****        *  @param  __a  An allocator.
 458:/usr/lib/gcc/x86_64-pc-linux-gnu/12/include/g++-v12/bits/alloc_traits.h ****        *  @param  __n  The number of objects to allocate space for.
 459:/usr/lib/gcc/x86_64-pc-linux-gnu/12/include/g++-v12/bits/alloc_traits.h ****        *
 460:/usr/lib/gcc/x86_64-pc-linux-gnu/12/include/g++-v12/bits/alloc_traits.h ****        *  Calls @c a.allocate(n)
 461:/usr/lib/gcc/x86_64-pc-linux-gnu/12/include/g++-v12/bits/alloc_traits.h ****       */
 462:/usr/lib/gcc/x86_64-pc-linux-gnu/12/include/g++-v12/bits/alloc_traits.h ****       _GLIBCXX_NODISCARD static _GLIBCXX20_CONSTEXPR pointer
 463:/usr/lib/gcc/x86_64-pc-linux-gnu/12/include/g++-v12/bits/alloc_traits.h ****       allocate(allocator_type& __a, size_type __n)
 464:/usr/lib/gcc/x86_64-pc-linux-gnu/12/include/g++-v12/bits/alloc_traits.h ****       { return __a.allocate(__n); }
 465:/usr/lib/gcc/x86_64-pc-linux-gnu/12/include/g++-v12/bits/alloc_traits.h **** 
 466:/usr/lib/gcc/x86_64-pc-linux-gnu/12/include/g++-v12/bits/alloc_traits.h ****       /**
 467:/usr/lib/gcc/x86_64-pc-linux-gnu/12/include/g++-v12/bits/alloc_traits.h ****        *  @brief  Allocate memory.
 468:/usr/lib/gcc/x86_64-pc-linux-gnu/12/include/g++-v12/bits/alloc_traits.h ****        *  @param  __a  An allocator.
 469:/usr/lib/gcc/x86_64-pc-linux-gnu/12/include/g++-v12/bits/alloc_traits.h ****        *  @param  __n  The number of objects to allocate space for.
 470:/usr/lib/gcc/x86_64-pc-linux-gnu/12/include/g++-v12/bits/alloc_traits.h ****        *  @param  __hint Aid to locality.
 471:/usr/lib/gcc/x86_64-pc-linux-gnu/12/include/g++-v12/bits/alloc_traits.h ****        *  @return Memory of suitable size and alignment for @a n objects
 472:/usr/lib/gcc/x86_64-pc-linux-gnu/12/include/g++-v12/bits/alloc_traits.h ****        *          of type @c value_type
 473:/usr/lib/gcc/x86_64-pc-linux-gnu/12/include/g++-v12/bits/alloc_traits.h ****        *
 474:/usr/lib/gcc/x86_64-pc-linux-gnu/12/include/g++-v12/bits/alloc_traits.h ****        *  Returns <tt> a.allocate(n, hint) </tt>
 475:/usr/lib/gcc/x86_64-pc-linux-gnu/12/include/g++-v12/bits/alloc_traits.h ****       */
 476:/usr/lib/gcc/x86_64-pc-linux-gnu/12/include/g++-v12/bits/alloc_traits.h ****       _GLIBCXX_NODISCARD static _GLIBCXX20_CONSTEXPR pointer
 477:/usr/lib/gcc/x86_64-pc-linux-gnu/12/include/g++-v12/bits/alloc_traits.h ****       allocate(allocator_type& __a, size_type __n, const_void_pointer __hint)
 478:/usr/lib/gcc/x86_64-pc-linux-gnu/12/include/g++-v12/bits/alloc_traits.h ****       {
 479:/usr/lib/gcc/x86_64-pc-linux-gnu/12/include/g++-v12/bits/alloc_traits.h **** #if __cplusplus <= 201703L
 480:/usr/lib/gcc/x86_64-pc-linux-gnu/12/include/g++-v12/bits/alloc_traits.h **** 	return __a.allocate(__n, __hint);
 481:/usr/lib/gcc/x86_64-pc-linux-gnu/12/include/g++-v12/bits/alloc_traits.h **** #else
 482:/usr/lib/gcc/x86_64-pc-linux-gnu/12/include/g++-v12/bits/alloc_traits.h **** 	return __a.allocate(__n);
 483:/usr/lib/gcc/x86_64-pc-linux-gnu/12/include/g++-v12/bits/alloc_traits.h **** #endif
 484:/usr/lib/gcc/x86_64-pc-linux-gnu/12/include/g++-v12/bits/alloc_traits.h ****       }
GAS LISTING /tmp/cce3XYli.s 			page 38


 485:/usr/lib/gcc/x86_64-pc-linux-gnu/12/include/g++-v12/bits/alloc_traits.h **** 
 486:/usr/lib/gcc/x86_64-pc-linux-gnu/12/include/g++-v12/bits/alloc_traits.h ****       /**
 487:/usr/lib/gcc/x86_64-pc-linux-gnu/12/include/g++-v12/bits/alloc_traits.h ****        *  @brief  Deallocate memory.
 488:/usr/lib/gcc/x86_64-pc-linux-gnu/12/include/g++-v12/bits/alloc_traits.h ****        *  @param  __a  An allocator.
 489:/usr/lib/gcc/x86_64-pc-linux-gnu/12/include/g++-v12/bits/alloc_traits.h ****        *  @param  __p  Pointer to the memory to deallocate.
 490:/usr/lib/gcc/x86_64-pc-linux-gnu/12/include/g++-v12/bits/alloc_traits.h ****        *  @param  __n  The number of objects space was allocated for.
 491:/usr/lib/gcc/x86_64-pc-linux-gnu/12/include/g++-v12/bits/alloc_traits.h ****        *
 492:/usr/lib/gcc/x86_64-pc-linux-gnu/12/include/g++-v12/bits/alloc_traits.h ****        *  Calls <tt> a.deallocate(p, n) </tt>
 493:/usr/lib/gcc/x86_64-pc-linux-gnu/12/include/g++-v12/bits/alloc_traits.h ****       */
 494:/usr/lib/gcc/x86_64-pc-linux-gnu/12/include/g++-v12/bits/alloc_traits.h ****       static _GLIBCXX20_CONSTEXPR void
 495:/usr/lib/gcc/x86_64-pc-linux-gnu/12/include/g++-v12/bits/alloc_traits.h ****       deallocate(allocator_type& __a, pointer __p, size_type __n)
 565              		.loc 5 495 7 view .LVU166
 566              	.LBB537:
 567              	.LBI537:
 568              		.file 6 "/usr/lib/gcc/x86_64-pc-linux-gnu/12/include/g++-v12/bits/new_allocator.h"
   1:/usr/lib/gcc/x86_64-pc-linux-gnu/12/include/g++-v12/bits/new_allocator.h **** // Allocator that wraps operator new -*- C++ -*-
   2:/usr/lib/gcc/x86_64-pc-linux-gnu/12/include/g++-v12/bits/new_allocator.h **** 
   3:/usr/lib/gcc/x86_64-pc-linux-gnu/12/include/g++-v12/bits/new_allocator.h **** // Copyright (C) 2001-2022 Free Software Foundation, Inc.
   4:/usr/lib/gcc/x86_64-pc-linux-gnu/12/include/g++-v12/bits/new_allocator.h **** //
   5:/usr/lib/gcc/x86_64-pc-linux-gnu/12/include/g++-v12/bits/new_allocator.h **** // This file is part of the GNU ISO C++ Library.  This library is free
   6:/usr/lib/gcc/x86_64-pc-linux-gnu/12/include/g++-v12/bits/new_allocator.h **** // software; you can redistribute it and/or modify it under the
   7:/usr/lib/gcc/x86_64-pc-linux-gnu/12/include/g++-v12/bits/new_allocator.h **** // terms of the GNU General Public License as published by the
   8:/usr/lib/gcc/x86_64-pc-linux-gnu/12/include/g++-v12/bits/new_allocator.h **** // Free Software Foundation; either version 3, or (at your option)
   9:/usr/lib/gcc/x86_64-pc-linux-gnu/12/include/g++-v12/bits/new_allocator.h **** // any later version.
  10:/usr/lib/gcc/x86_64-pc-linux-gnu/12/include/g++-v12/bits/new_allocator.h **** 
  11:/usr/lib/gcc/x86_64-pc-linux-gnu/12/include/g++-v12/bits/new_allocator.h **** // This library is distributed in the hope that it will be useful,
  12:/usr/lib/gcc/x86_64-pc-linux-gnu/12/include/g++-v12/bits/new_allocator.h **** // but WITHOUT ANY WARRANTY; without even the implied warranty of
  13:/usr/lib/gcc/x86_64-pc-linux-gnu/12/include/g++-v12/bits/new_allocator.h **** // MERCHANTABILITY or FITNESS FOR A PARTICULAR PURPOSE.  See the
  14:/usr/lib/gcc/x86_64-pc-linux-gnu/12/include/g++-v12/bits/new_allocator.h **** // GNU General Public License for more details.
  15:/usr/lib/gcc/x86_64-pc-linux-gnu/12/include/g++-v12/bits/new_allocator.h **** 
  16:/usr/lib/gcc/x86_64-pc-linux-gnu/12/include/g++-v12/bits/new_allocator.h **** // Under Section 7 of GPL version 3, you are granted additional
  17:/usr/lib/gcc/x86_64-pc-linux-gnu/12/include/g++-v12/bits/new_allocator.h **** // permissions described in the GCC Runtime Library Exception, version
  18:/usr/lib/gcc/x86_64-pc-linux-gnu/12/include/g++-v12/bits/new_allocator.h **** // 3.1, as published by the Free Software Foundation.
  19:/usr/lib/gcc/x86_64-pc-linux-gnu/12/include/g++-v12/bits/new_allocator.h **** 
  20:/usr/lib/gcc/x86_64-pc-linux-gnu/12/include/g++-v12/bits/new_allocator.h **** // You should have received a copy of the GNU General Public License and
  21:/usr/lib/gcc/x86_64-pc-linux-gnu/12/include/g++-v12/bits/new_allocator.h **** // a copy of the GCC Runtime Library Exception along with this program;
  22:/usr/lib/gcc/x86_64-pc-linux-gnu/12/include/g++-v12/bits/new_allocator.h **** // see the files COPYING3 and COPYING.RUNTIME respectively.  If not, see
  23:/usr/lib/gcc/x86_64-pc-linux-gnu/12/include/g++-v12/bits/new_allocator.h **** // <http://www.gnu.org/licenses/>.
  24:/usr/lib/gcc/x86_64-pc-linux-gnu/12/include/g++-v12/bits/new_allocator.h **** 
  25:/usr/lib/gcc/x86_64-pc-linux-gnu/12/include/g++-v12/bits/new_allocator.h **** /** @file bits/new_allocator.h
  26:/usr/lib/gcc/x86_64-pc-linux-gnu/12/include/g++-v12/bits/new_allocator.h ****  *  This is an internal header file, included by other library headers.
  27:/usr/lib/gcc/x86_64-pc-linux-gnu/12/include/g++-v12/bits/new_allocator.h ****  *  Do not attempt to use it directly. @headername{memory}
  28:/usr/lib/gcc/x86_64-pc-linux-gnu/12/include/g++-v12/bits/new_allocator.h ****  */
  29:/usr/lib/gcc/x86_64-pc-linux-gnu/12/include/g++-v12/bits/new_allocator.h **** 
  30:/usr/lib/gcc/x86_64-pc-linux-gnu/12/include/g++-v12/bits/new_allocator.h **** #ifndef _STD_NEW_ALLOCATOR_H
  31:/usr/lib/gcc/x86_64-pc-linux-gnu/12/include/g++-v12/bits/new_allocator.h **** #define _STD_NEW_ALLOCATOR_H 1
  32:/usr/lib/gcc/x86_64-pc-linux-gnu/12/include/g++-v12/bits/new_allocator.h **** 
  33:/usr/lib/gcc/x86_64-pc-linux-gnu/12/include/g++-v12/bits/new_allocator.h **** #include <bits/c++config.h>
  34:/usr/lib/gcc/x86_64-pc-linux-gnu/12/include/g++-v12/bits/new_allocator.h **** #include <new>
  35:/usr/lib/gcc/x86_64-pc-linux-gnu/12/include/g++-v12/bits/new_allocator.h **** #include <bits/functexcept.h>
  36:/usr/lib/gcc/x86_64-pc-linux-gnu/12/include/g++-v12/bits/new_allocator.h **** #include <bits/move.h>
  37:/usr/lib/gcc/x86_64-pc-linux-gnu/12/include/g++-v12/bits/new_allocator.h **** #if __cplusplus >= 201103L
  38:/usr/lib/gcc/x86_64-pc-linux-gnu/12/include/g++-v12/bits/new_allocator.h **** #include <type_traits>
  39:/usr/lib/gcc/x86_64-pc-linux-gnu/12/include/g++-v12/bits/new_allocator.h **** #endif
  40:/usr/lib/gcc/x86_64-pc-linux-gnu/12/include/g++-v12/bits/new_allocator.h **** 
  41:/usr/lib/gcc/x86_64-pc-linux-gnu/12/include/g++-v12/bits/new_allocator.h **** namespace std _GLIBCXX_VISIBILITY(default)
  42:/usr/lib/gcc/x86_64-pc-linux-gnu/12/include/g++-v12/bits/new_allocator.h **** {
GAS LISTING /tmp/cce3XYli.s 			page 39


  43:/usr/lib/gcc/x86_64-pc-linux-gnu/12/include/g++-v12/bits/new_allocator.h **** _GLIBCXX_BEGIN_NAMESPACE_VERSION
  44:/usr/lib/gcc/x86_64-pc-linux-gnu/12/include/g++-v12/bits/new_allocator.h **** 
  45:/usr/lib/gcc/x86_64-pc-linux-gnu/12/include/g++-v12/bits/new_allocator.h ****   /**
  46:/usr/lib/gcc/x86_64-pc-linux-gnu/12/include/g++-v12/bits/new_allocator.h ****    *  @brief  An allocator that uses global new, as per C++03 [20.4.1].
  47:/usr/lib/gcc/x86_64-pc-linux-gnu/12/include/g++-v12/bits/new_allocator.h ****    *  @ingroup allocators
  48:/usr/lib/gcc/x86_64-pc-linux-gnu/12/include/g++-v12/bits/new_allocator.h ****    *
  49:/usr/lib/gcc/x86_64-pc-linux-gnu/12/include/g++-v12/bits/new_allocator.h ****    *  This is precisely the allocator defined in the C++ Standard.
  50:/usr/lib/gcc/x86_64-pc-linux-gnu/12/include/g++-v12/bits/new_allocator.h ****    *    - all allocation calls operator new
  51:/usr/lib/gcc/x86_64-pc-linux-gnu/12/include/g++-v12/bits/new_allocator.h ****    *    - all deallocation calls operator delete
  52:/usr/lib/gcc/x86_64-pc-linux-gnu/12/include/g++-v12/bits/new_allocator.h ****    *
  53:/usr/lib/gcc/x86_64-pc-linux-gnu/12/include/g++-v12/bits/new_allocator.h ****    *  @tparam  _Tp  Type of allocated object.
  54:/usr/lib/gcc/x86_64-pc-linux-gnu/12/include/g++-v12/bits/new_allocator.h ****    */
  55:/usr/lib/gcc/x86_64-pc-linux-gnu/12/include/g++-v12/bits/new_allocator.h ****   template<typename _Tp>
  56:/usr/lib/gcc/x86_64-pc-linux-gnu/12/include/g++-v12/bits/new_allocator.h ****     class __new_allocator
  57:/usr/lib/gcc/x86_64-pc-linux-gnu/12/include/g++-v12/bits/new_allocator.h ****     {
  58:/usr/lib/gcc/x86_64-pc-linux-gnu/12/include/g++-v12/bits/new_allocator.h ****     public:
  59:/usr/lib/gcc/x86_64-pc-linux-gnu/12/include/g++-v12/bits/new_allocator.h ****       typedef _Tp        value_type;
  60:/usr/lib/gcc/x86_64-pc-linux-gnu/12/include/g++-v12/bits/new_allocator.h ****       typedef std::size_t     size_type;
  61:/usr/lib/gcc/x86_64-pc-linux-gnu/12/include/g++-v12/bits/new_allocator.h ****       typedef std::ptrdiff_t  difference_type;
  62:/usr/lib/gcc/x86_64-pc-linux-gnu/12/include/g++-v12/bits/new_allocator.h **** #if __cplusplus <= 201703L
  63:/usr/lib/gcc/x86_64-pc-linux-gnu/12/include/g++-v12/bits/new_allocator.h ****       typedef _Tp*       pointer;
  64:/usr/lib/gcc/x86_64-pc-linux-gnu/12/include/g++-v12/bits/new_allocator.h ****       typedef const _Tp* const_pointer;
  65:/usr/lib/gcc/x86_64-pc-linux-gnu/12/include/g++-v12/bits/new_allocator.h ****       typedef _Tp&       reference;
  66:/usr/lib/gcc/x86_64-pc-linux-gnu/12/include/g++-v12/bits/new_allocator.h ****       typedef const _Tp& const_reference;
  67:/usr/lib/gcc/x86_64-pc-linux-gnu/12/include/g++-v12/bits/new_allocator.h **** 
  68:/usr/lib/gcc/x86_64-pc-linux-gnu/12/include/g++-v12/bits/new_allocator.h ****       template<typename _Tp1>
  69:/usr/lib/gcc/x86_64-pc-linux-gnu/12/include/g++-v12/bits/new_allocator.h **** 	struct rebind
  70:/usr/lib/gcc/x86_64-pc-linux-gnu/12/include/g++-v12/bits/new_allocator.h **** 	{ typedef __new_allocator<_Tp1> other; };
  71:/usr/lib/gcc/x86_64-pc-linux-gnu/12/include/g++-v12/bits/new_allocator.h **** #endif
  72:/usr/lib/gcc/x86_64-pc-linux-gnu/12/include/g++-v12/bits/new_allocator.h **** 
  73:/usr/lib/gcc/x86_64-pc-linux-gnu/12/include/g++-v12/bits/new_allocator.h **** #if __cplusplus >= 201103L
  74:/usr/lib/gcc/x86_64-pc-linux-gnu/12/include/g++-v12/bits/new_allocator.h ****       // _GLIBCXX_RESOLVE_LIB_DEFECTS
  75:/usr/lib/gcc/x86_64-pc-linux-gnu/12/include/g++-v12/bits/new_allocator.h ****       // 2103. propagate_on_container_move_assignment
  76:/usr/lib/gcc/x86_64-pc-linux-gnu/12/include/g++-v12/bits/new_allocator.h ****       typedef std::true_type propagate_on_container_move_assignment;
  77:/usr/lib/gcc/x86_64-pc-linux-gnu/12/include/g++-v12/bits/new_allocator.h **** #endif
  78:/usr/lib/gcc/x86_64-pc-linux-gnu/12/include/g++-v12/bits/new_allocator.h **** 
  79:/usr/lib/gcc/x86_64-pc-linux-gnu/12/include/g++-v12/bits/new_allocator.h ****       _GLIBCXX20_CONSTEXPR
  80:/usr/lib/gcc/x86_64-pc-linux-gnu/12/include/g++-v12/bits/new_allocator.h ****       __new_allocator() _GLIBCXX_USE_NOEXCEPT { }
  81:/usr/lib/gcc/x86_64-pc-linux-gnu/12/include/g++-v12/bits/new_allocator.h **** 
  82:/usr/lib/gcc/x86_64-pc-linux-gnu/12/include/g++-v12/bits/new_allocator.h ****       _GLIBCXX20_CONSTEXPR
  83:/usr/lib/gcc/x86_64-pc-linux-gnu/12/include/g++-v12/bits/new_allocator.h ****       __new_allocator(const __new_allocator&) _GLIBCXX_USE_NOEXCEPT { }
  84:/usr/lib/gcc/x86_64-pc-linux-gnu/12/include/g++-v12/bits/new_allocator.h **** 
  85:/usr/lib/gcc/x86_64-pc-linux-gnu/12/include/g++-v12/bits/new_allocator.h ****       template<typename _Tp1>
  86:/usr/lib/gcc/x86_64-pc-linux-gnu/12/include/g++-v12/bits/new_allocator.h **** 	_GLIBCXX20_CONSTEXPR
  87:/usr/lib/gcc/x86_64-pc-linux-gnu/12/include/g++-v12/bits/new_allocator.h **** 	__new_allocator(const __new_allocator<_Tp1>&) _GLIBCXX_USE_NOEXCEPT { }
  88:/usr/lib/gcc/x86_64-pc-linux-gnu/12/include/g++-v12/bits/new_allocator.h **** 
  89:/usr/lib/gcc/x86_64-pc-linux-gnu/12/include/g++-v12/bits/new_allocator.h **** #if __cplusplus <= 201703L
  90:/usr/lib/gcc/x86_64-pc-linux-gnu/12/include/g++-v12/bits/new_allocator.h ****       ~__new_allocator() _GLIBCXX_USE_NOEXCEPT { }
  91:/usr/lib/gcc/x86_64-pc-linux-gnu/12/include/g++-v12/bits/new_allocator.h **** 
  92:/usr/lib/gcc/x86_64-pc-linux-gnu/12/include/g++-v12/bits/new_allocator.h ****       pointer
  93:/usr/lib/gcc/x86_64-pc-linux-gnu/12/include/g++-v12/bits/new_allocator.h ****       address(reference __x) const _GLIBCXX_NOEXCEPT
  94:/usr/lib/gcc/x86_64-pc-linux-gnu/12/include/g++-v12/bits/new_allocator.h ****       { return std::__addressof(__x); }
  95:/usr/lib/gcc/x86_64-pc-linux-gnu/12/include/g++-v12/bits/new_allocator.h **** 
  96:/usr/lib/gcc/x86_64-pc-linux-gnu/12/include/g++-v12/bits/new_allocator.h ****       const_pointer
  97:/usr/lib/gcc/x86_64-pc-linux-gnu/12/include/g++-v12/bits/new_allocator.h ****       address(const_reference __x) const _GLIBCXX_NOEXCEPT
  98:/usr/lib/gcc/x86_64-pc-linux-gnu/12/include/g++-v12/bits/new_allocator.h ****       { return std::__addressof(__x); }
  99:/usr/lib/gcc/x86_64-pc-linux-gnu/12/include/g++-v12/bits/new_allocator.h **** #endif
GAS LISTING /tmp/cce3XYli.s 			page 40


 100:/usr/lib/gcc/x86_64-pc-linux-gnu/12/include/g++-v12/bits/new_allocator.h **** 
 101:/usr/lib/gcc/x86_64-pc-linux-gnu/12/include/g++-v12/bits/new_allocator.h **** #if __has_builtin(__builtin_operator_new) >= 201802L
 102:/usr/lib/gcc/x86_64-pc-linux-gnu/12/include/g++-v12/bits/new_allocator.h **** # define _GLIBCXX_OPERATOR_NEW __builtin_operator_new
 103:/usr/lib/gcc/x86_64-pc-linux-gnu/12/include/g++-v12/bits/new_allocator.h **** # define _GLIBCXX_OPERATOR_DELETE __builtin_operator_delete
 104:/usr/lib/gcc/x86_64-pc-linux-gnu/12/include/g++-v12/bits/new_allocator.h **** #else
 105:/usr/lib/gcc/x86_64-pc-linux-gnu/12/include/g++-v12/bits/new_allocator.h **** # define _GLIBCXX_OPERATOR_NEW ::operator new
 106:/usr/lib/gcc/x86_64-pc-linux-gnu/12/include/g++-v12/bits/new_allocator.h **** # define _GLIBCXX_OPERATOR_DELETE ::operator delete
 107:/usr/lib/gcc/x86_64-pc-linux-gnu/12/include/g++-v12/bits/new_allocator.h **** #endif
 108:/usr/lib/gcc/x86_64-pc-linux-gnu/12/include/g++-v12/bits/new_allocator.h **** 
 109:/usr/lib/gcc/x86_64-pc-linux-gnu/12/include/g++-v12/bits/new_allocator.h ****       // NB: __n is permitted to be 0.  The C++ standard says nothing
 110:/usr/lib/gcc/x86_64-pc-linux-gnu/12/include/g++-v12/bits/new_allocator.h ****       // about what the return value is when __n == 0.
 111:/usr/lib/gcc/x86_64-pc-linux-gnu/12/include/g++-v12/bits/new_allocator.h ****       _GLIBCXX_NODISCARD _Tp*
 112:/usr/lib/gcc/x86_64-pc-linux-gnu/12/include/g++-v12/bits/new_allocator.h ****       allocate(size_type __n, const void* = static_cast<const void*>(0))
 113:/usr/lib/gcc/x86_64-pc-linux-gnu/12/include/g++-v12/bits/new_allocator.h ****       {
 114:/usr/lib/gcc/x86_64-pc-linux-gnu/12/include/g++-v12/bits/new_allocator.h **** #if __cplusplus >= 201103L
 115:/usr/lib/gcc/x86_64-pc-linux-gnu/12/include/g++-v12/bits/new_allocator.h **** 	// _GLIBCXX_RESOLVE_LIB_DEFECTS
 116:/usr/lib/gcc/x86_64-pc-linux-gnu/12/include/g++-v12/bits/new_allocator.h **** 	// 3308. std::allocator<void>().allocate(n)
 117:/usr/lib/gcc/x86_64-pc-linux-gnu/12/include/g++-v12/bits/new_allocator.h **** 	static_assert(sizeof(_Tp) != 0, "cannot allocate incomplete types");
 118:/usr/lib/gcc/x86_64-pc-linux-gnu/12/include/g++-v12/bits/new_allocator.h **** #endif
 119:/usr/lib/gcc/x86_64-pc-linux-gnu/12/include/g++-v12/bits/new_allocator.h **** 
 120:/usr/lib/gcc/x86_64-pc-linux-gnu/12/include/g++-v12/bits/new_allocator.h **** 	if (__builtin_expect(__n > this->_M_max_size(), false))
 121:/usr/lib/gcc/x86_64-pc-linux-gnu/12/include/g++-v12/bits/new_allocator.h **** 	  {
 122:/usr/lib/gcc/x86_64-pc-linux-gnu/12/include/g++-v12/bits/new_allocator.h **** 	    // _GLIBCXX_RESOLVE_LIB_DEFECTS
 123:/usr/lib/gcc/x86_64-pc-linux-gnu/12/include/g++-v12/bits/new_allocator.h **** 	    // 3190. allocator::allocate sometimes returns too little storage
 124:/usr/lib/gcc/x86_64-pc-linux-gnu/12/include/g++-v12/bits/new_allocator.h **** 	    if (__n > (std::size_t(-1) / sizeof(_Tp)))
 125:/usr/lib/gcc/x86_64-pc-linux-gnu/12/include/g++-v12/bits/new_allocator.h **** 	      std::__throw_bad_array_new_length();
 126:/usr/lib/gcc/x86_64-pc-linux-gnu/12/include/g++-v12/bits/new_allocator.h **** 	    std::__throw_bad_alloc();
 127:/usr/lib/gcc/x86_64-pc-linux-gnu/12/include/g++-v12/bits/new_allocator.h **** 	  }
 128:/usr/lib/gcc/x86_64-pc-linux-gnu/12/include/g++-v12/bits/new_allocator.h **** 
 129:/usr/lib/gcc/x86_64-pc-linux-gnu/12/include/g++-v12/bits/new_allocator.h **** #if __cpp_aligned_new
 130:/usr/lib/gcc/x86_64-pc-linux-gnu/12/include/g++-v12/bits/new_allocator.h **** 	if (alignof(_Tp) > __STDCPP_DEFAULT_NEW_ALIGNMENT__)
 131:/usr/lib/gcc/x86_64-pc-linux-gnu/12/include/g++-v12/bits/new_allocator.h **** 	  {
 132:/usr/lib/gcc/x86_64-pc-linux-gnu/12/include/g++-v12/bits/new_allocator.h **** 	    std::align_val_t __al = std::align_val_t(alignof(_Tp));
 133:/usr/lib/gcc/x86_64-pc-linux-gnu/12/include/g++-v12/bits/new_allocator.h **** 	    return static_cast<_Tp*>(_GLIBCXX_OPERATOR_NEW(__n * sizeof(_Tp),
 134:/usr/lib/gcc/x86_64-pc-linux-gnu/12/include/g++-v12/bits/new_allocator.h **** 							   __al));
 135:/usr/lib/gcc/x86_64-pc-linux-gnu/12/include/g++-v12/bits/new_allocator.h **** 	  }
 136:/usr/lib/gcc/x86_64-pc-linux-gnu/12/include/g++-v12/bits/new_allocator.h **** #endif
 137:/usr/lib/gcc/x86_64-pc-linux-gnu/12/include/g++-v12/bits/new_allocator.h **** 	return static_cast<_Tp*>(_GLIBCXX_OPERATOR_NEW(__n * sizeof(_Tp)));
 138:/usr/lib/gcc/x86_64-pc-linux-gnu/12/include/g++-v12/bits/new_allocator.h ****       }
 139:/usr/lib/gcc/x86_64-pc-linux-gnu/12/include/g++-v12/bits/new_allocator.h **** 
 140:/usr/lib/gcc/x86_64-pc-linux-gnu/12/include/g++-v12/bits/new_allocator.h ****       // __p is not permitted to be a null pointer.
 141:/usr/lib/gcc/x86_64-pc-linux-gnu/12/include/g++-v12/bits/new_allocator.h ****       void
 142:/usr/lib/gcc/x86_64-pc-linux-gnu/12/include/g++-v12/bits/new_allocator.h ****       deallocate(_Tp* __p, size_type __n __attribute__ ((__unused__)))
 569              		.loc 6 142 7 view .LVU167
 570              	.LBE537:
 571              	.LBE536:
 292:/usr/lib/gcc/x86_64-pc-linux-gnu/12/include/g++-v12/bits/basic_string.h ****       { _Alloc_traits::deallocate(_M_get_allocator(), _M_data(), __size + 1); }
 572              		.loc 4 292 34 is_stmt 0 view .LVU168
 573 0010 488B7710 		movq	16(%rdi), %rsi
 574 0014 4883C601 		addq	$1, %rsi
 575              	.LVL48:
 576              	.LBB540:
 577              	.LBB539:
 578              	.LBB538:
 143:/usr/lib/gcc/x86_64-pc-linux-gnu/12/include/g++-v12/bits/new_allocator.h ****       {
 144:/usr/lib/gcc/x86_64-pc-linux-gnu/12/include/g++-v12/bits/new_allocator.h **** #if __cpp_sized_deallocation
 145:/usr/lib/gcc/x86_64-pc-linux-gnu/12/include/g++-v12/bits/new_allocator.h **** # define _GLIBCXX_SIZED_DEALLOC(p, n) (p), (n) * sizeof(_Tp)
GAS LISTING /tmp/cce3XYli.s 			page 41


 146:/usr/lib/gcc/x86_64-pc-linux-gnu/12/include/g++-v12/bits/new_allocator.h **** #else
 147:/usr/lib/gcc/x86_64-pc-linux-gnu/12/include/g++-v12/bits/new_allocator.h **** # define _GLIBCXX_SIZED_DEALLOC(p, n) (p)
 148:/usr/lib/gcc/x86_64-pc-linux-gnu/12/include/g++-v12/bits/new_allocator.h **** #endif
 149:/usr/lib/gcc/x86_64-pc-linux-gnu/12/include/g++-v12/bits/new_allocator.h **** 
 150:/usr/lib/gcc/x86_64-pc-linux-gnu/12/include/g++-v12/bits/new_allocator.h **** #if __cpp_aligned_new
 151:/usr/lib/gcc/x86_64-pc-linux-gnu/12/include/g++-v12/bits/new_allocator.h **** 	if (alignof(_Tp) > __STDCPP_DEFAULT_NEW_ALIGNMENT__)
 152:/usr/lib/gcc/x86_64-pc-linux-gnu/12/include/g++-v12/bits/new_allocator.h **** 	  {
 153:/usr/lib/gcc/x86_64-pc-linux-gnu/12/include/g++-v12/bits/new_allocator.h **** 	    _GLIBCXX_OPERATOR_DELETE(_GLIBCXX_SIZED_DEALLOC(__p, __n),
 154:/usr/lib/gcc/x86_64-pc-linux-gnu/12/include/g++-v12/bits/new_allocator.h **** 				     std::align_val_t(alignof(_Tp)));
 155:/usr/lib/gcc/x86_64-pc-linux-gnu/12/include/g++-v12/bits/new_allocator.h **** 	    return;
 156:/usr/lib/gcc/x86_64-pc-linux-gnu/12/include/g++-v12/bits/new_allocator.h **** 	  }
 157:/usr/lib/gcc/x86_64-pc-linux-gnu/12/include/g++-v12/bits/new_allocator.h **** #endif
 158:/usr/lib/gcc/x86_64-pc-linux-gnu/12/include/g++-v12/bits/new_allocator.h **** 	_GLIBCXX_OPERATOR_DELETE(_GLIBCXX_SIZED_DEALLOC(__p, __n));
 579              		.loc 6 158 26 view .LVU169
 580 0018 4889C7   		movq	%rax, %rdi
 581              	.LVL49:
 582              		.loc 6 158 26 view .LVU170
 583 001b E8000000 		call	_ZdlPvm@PLT
 583      00
 584              	.LVL50:
 585              		.loc 6 158 26 view .LVU171
 586              	.LBE538:
 587              	.LBE539:
 588              	.LBE540:
 589              	.LBE535:
 590              	.LBE534:
 287:/usr/lib/gcc/x86_64-pc-linux-gnu/12/include/g++-v12/bits/basic_string.h **** 
 591              		.loc 4 287 7 view .LVU172
 592 0020 4883C408 		addq	$8, %rsp
 593              		.cfi_def_cfa_offset 8
 594 0024 C3       		ret
 595              	.LVL51:
 596              	.L18:
 287:/usr/lib/gcc/x86_64-pc-linux-gnu/12/include/g++-v12/bits/basic_string.h **** 
 597              		.loc 4 287 7 view .LVU173
 598 0025 C3       		ret
 599              		.cfi_endproc
 600              	.LFE4505:
 601              		.size	_ZNSt7__cxx1112basic_stringIcSt11char_traitsIcESaIcEE10_M_disposeEv, .-_ZNSt7__cxx1112basic_
 602              		.section	.rodata._ZNSt7__cxx1112basic_stringIcSt11char_traitsIcESaIcEE12_M_constructIPKcEEvT_S8_St
 603              	.LC7:
 604 0000 62617369 		.string	"basic_string::_M_create"
 604      635F7374 
 604      72696E67 
 604      3A3A5F4D 
 604      5F637265 
 605              		.section	.text._ZNSt7__cxx1112basic_stringIcSt11char_traitsIcESaIcEE12_M_constructIPKcEEvT_S8_St20
 606              		.align 2
 607              		.weak	_ZNSt7__cxx1112basic_stringIcSt11char_traitsIcESaIcEE12_M_constructIPKcEEvT_S8_St20forward_i
 608              		.type	_ZNSt7__cxx1112basic_stringIcSt11char_traitsIcESaIcEE12_M_constructIPKcEEvT_S8_St20forward_i
 609              	_ZNSt7__cxx1112basic_stringIcSt11char_traitsIcESaIcEE12_M_constructIPKcEEvT_S8_St20forward_iterator
 610              	.LVL52:
 611              	.LFB4528:
 612              		.file 7 "/usr/lib/gcc/x86_64-pc-linux-gnu/12/include/g++-v12/bits/basic_string.tcc"
   1:/usr/lib/gcc/x86_64-pc-linux-gnu/12/include/g++-v12/bits/basic_string.tcc **** // Components for manipulating sequences of characters -*- C++ -*-
   2:/usr/lib/gcc/x86_64-pc-linux-gnu/12/include/g++-v12/bits/basic_string.tcc **** 
   3:/usr/lib/gcc/x86_64-pc-linux-gnu/12/include/g++-v12/bits/basic_string.tcc **** // Copyright (C) 1997-2022 Free Software Foundation, Inc.
GAS LISTING /tmp/cce3XYli.s 			page 42


   4:/usr/lib/gcc/x86_64-pc-linux-gnu/12/include/g++-v12/bits/basic_string.tcc **** //
   5:/usr/lib/gcc/x86_64-pc-linux-gnu/12/include/g++-v12/bits/basic_string.tcc **** // This file is part of the GNU ISO C++ Library.  This library is free
   6:/usr/lib/gcc/x86_64-pc-linux-gnu/12/include/g++-v12/bits/basic_string.tcc **** // software; you can redistribute it and/or modify it under the
   7:/usr/lib/gcc/x86_64-pc-linux-gnu/12/include/g++-v12/bits/basic_string.tcc **** // terms of the GNU General Public License as published by the
   8:/usr/lib/gcc/x86_64-pc-linux-gnu/12/include/g++-v12/bits/basic_string.tcc **** // Free Software Foundation; either version 3, or (at your option)
   9:/usr/lib/gcc/x86_64-pc-linux-gnu/12/include/g++-v12/bits/basic_string.tcc **** // any later version.
  10:/usr/lib/gcc/x86_64-pc-linux-gnu/12/include/g++-v12/bits/basic_string.tcc **** 
  11:/usr/lib/gcc/x86_64-pc-linux-gnu/12/include/g++-v12/bits/basic_string.tcc **** // This library is distributed in the hope that it will be useful,
  12:/usr/lib/gcc/x86_64-pc-linux-gnu/12/include/g++-v12/bits/basic_string.tcc **** // but WITHOUT ANY WARRANTY; without even the implied warranty of
  13:/usr/lib/gcc/x86_64-pc-linux-gnu/12/include/g++-v12/bits/basic_string.tcc **** // MERCHANTABILITY or FITNESS FOR A PARTICULAR PURPOSE.  See the
  14:/usr/lib/gcc/x86_64-pc-linux-gnu/12/include/g++-v12/bits/basic_string.tcc **** // GNU General Public License for more details.
  15:/usr/lib/gcc/x86_64-pc-linux-gnu/12/include/g++-v12/bits/basic_string.tcc **** 
  16:/usr/lib/gcc/x86_64-pc-linux-gnu/12/include/g++-v12/bits/basic_string.tcc **** // Under Section 7 of GPL version 3, you are granted additional
  17:/usr/lib/gcc/x86_64-pc-linux-gnu/12/include/g++-v12/bits/basic_string.tcc **** // permissions described in the GCC Runtime Library Exception, version
  18:/usr/lib/gcc/x86_64-pc-linux-gnu/12/include/g++-v12/bits/basic_string.tcc **** // 3.1, as published by the Free Software Foundation.
  19:/usr/lib/gcc/x86_64-pc-linux-gnu/12/include/g++-v12/bits/basic_string.tcc **** 
  20:/usr/lib/gcc/x86_64-pc-linux-gnu/12/include/g++-v12/bits/basic_string.tcc **** // You should have received a copy of the GNU General Public License and
  21:/usr/lib/gcc/x86_64-pc-linux-gnu/12/include/g++-v12/bits/basic_string.tcc **** // a copy of the GCC Runtime Library Exception along with this program;
  22:/usr/lib/gcc/x86_64-pc-linux-gnu/12/include/g++-v12/bits/basic_string.tcc **** // see the files COPYING3 and COPYING.RUNTIME respectively.  If not, see
  23:/usr/lib/gcc/x86_64-pc-linux-gnu/12/include/g++-v12/bits/basic_string.tcc **** // <http://www.gnu.org/licenses/>.
  24:/usr/lib/gcc/x86_64-pc-linux-gnu/12/include/g++-v12/bits/basic_string.tcc **** 
  25:/usr/lib/gcc/x86_64-pc-linux-gnu/12/include/g++-v12/bits/basic_string.tcc **** /** @file bits/basic_string.tcc
  26:/usr/lib/gcc/x86_64-pc-linux-gnu/12/include/g++-v12/bits/basic_string.tcc ****  *  This is an internal header file, included by other library headers.
  27:/usr/lib/gcc/x86_64-pc-linux-gnu/12/include/g++-v12/bits/basic_string.tcc ****  *  Do not attempt to use it directly. @headername{string}
  28:/usr/lib/gcc/x86_64-pc-linux-gnu/12/include/g++-v12/bits/basic_string.tcc ****  */
  29:/usr/lib/gcc/x86_64-pc-linux-gnu/12/include/g++-v12/bits/basic_string.tcc **** 
  30:/usr/lib/gcc/x86_64-pc-linux-gnu/12/include/g++-v12/bits/basic_string.tcc **** //
  31:/usr/lib/gcc/x86_64-pc-linux-gnu/12/include/g++-v12/bits/basic_string.tcc **** // ISO C++ 14882: 21  Strings library
  32:/usr/lib/gcc/x86_64-pc-linux-gnu/12/include/g++-v12/bits/basic_string.tcc **** //
  33:/usr/lib/gcc/x86_64-pc-linux-gnu/12/include/g++-v12/bits/basic_string.tcc **** 
  34:/usr/lib/gcc/x86_64-pc-linux-gnu/12/include/g++-v12/bits/basic_string.tcc **** // Written by Jason Merrill based upon the specification by Takanori Adachi
  35:/usr/lib/gcc/x86_64-pc-linux-gnu/12/include/g++-v12/bits/basic_string.tcc **** // in ANSI X3J16/94-0013R2.  Rewritten by Nathan Myers to ISO-14882.
  36:/usr/lib/gcc/x86_64-pc-linux-gnu/12/include/g++-v12/bits/basic_string.tcc **** // Non-reference-counted implementation written by Paolo Carlini and
  37:/usr/lib/gcc/x86_64-pc-linux-gnu/12/include/g++-v12/bits/basic_string.tcc **** // updated by Jonathan Wakely for ISO-14882-2011.
  38:/usr/lib/gcc/x86_64-pc-linux-gnu/12/include/g++-v12/bits/basic_string.tcc **** 
  39:/usr/lib/gcc/x86_64-pc-linux-gnu/12/include/g++-v12/bits/basic_string.tcc **** #ifndef _BASIC_STRING_TCC
  40:/usr/lib/gcc/x86_64-pc-linux-gnu/12/include/g++-v12/bits/basic_string.tcc **** #define _BASIC_STRING_TCC 1
  41:/usr/lib/gcc/x86_64-pc-linux-gnu/12/include/g++-v12/bits/basic_string.tcc **** 
  42:/usr/lib/gcc/x86_64-pc-linux-gnu/12/include/g++-v12/bits/basic_string.tcc **** #pragma GCC system_header
  43:/usr/lib/gcc/x86_64-pc-linux-gnu/12/include/g++-v12/bits/basic_string.tcc **** 
  44:/usr/lib/gcc/x86_64-pc-linux-gnu/12/include/g++-v12/bits/basic_string.tcc **** #include <bits/cxxabi_forced.h>
  45:/usr/lib/gcc/x86_64-pc-linux-gnu/12/include/g++-v12/bits/basic_string.tcc **** 
  46:/usr/lib/gcc/x86_64-pc-linux-gnu/12/include/g++-v12/bits/basic_string.tcc **** namespace std _GLIBCXX_VISIBILITY(default)
  47:/usr/lib/gcc/x86_64-pc-linux-gnu/12/include/g++-v12/bits/basic_string.tcc **** {
  48:/usr/lib/gcc/x86_64-pc-linux-gnu/12/include/g++-v12/bits/basic_string.tcc **** _GLIBCXX_BEGIN_NAMESPACE_VERSION
  49:/usr/lib/gcc/x86_64-pc-linux-gnu/12/include/g++-v12/bits/basic_string.tcc **** 
  50:/usr/lib/gcc/x86_64-pc-linux-gnu/12/include/g++-v12/bits/basic_string.tcc **** #if _GLIBCXX_USE_CXX11_ABI
  51:/usr/lib/gcc/x86_64-pc-linux-gnu/12/include/g++-v12/bits/basic_string.tcc **** 
  52:/usr/lib/gcc/x86_64-pc-linux-gnu/12/include/g++-v12/bits/basic_string.tcc ****   template<typename _CharT, typename _Traits, typename _Alloc>
  53:/usr/lib/gcc/x86_64-pc-linux-gnu/12/include/g++-v12/bits/basic_string.tcc ****     const typename basic_string<_CharT, _Traits, _Alloc>::size_type
  54:/usr/lib/gcc/x86_64-pc-linux-gnu/12/include/g++-v12/bits/basic_string.tcc ****     basic_string<_CharT, _Traits, _Alloc>::npos;
  55:/usr/lib/gcc/x86_64-pc-linux-gnu/12/include/g++-v12/bits/basic_string.tcc **** 
  56:/usr/lib/gcc/x86_64-pc-linux-gnu/12/include/g++-v12/bits/basic_string.tcc ****   template<typename _CharT, typename _Traits, typename _Alloc>
  57:/usr/lib/gcc/x86_64-pc-linux-gnu/12/include/g++-v12/bits/basic_string.tcc ****     _GLIBCXX20_CONSTEXPR
  58:/usr/lib/gcc/x86_64-pc-linux-gnu/12/include/g++-v12/bits/basic_string.tcc ****     void
  59:/usr/lib/gcc/x86_64-pc-linux-gnu/12/include/g++-v12/bits/basic_string.tcc ****     basic_string<_CharT, _Traits, _Alloc>::
  60:/usr/lib/gcc/x86_64-pc-linux-gnu/12/include/g++-v12/bits/basic_string.tcc ****     swap(basic_string& __s) _GLIBCXX_NOEXCEPT
GAS LISTING /tmp/cce3XYli.s 			page 43


  61:/usr/lib/gcc/x86_64-pc-linux-gnu/12/include/g++-v12/bits/basic_string.tcc ****     {
  62:/usr/lib/gcc/x86_64-pc-linux-gnu/12/include/g++-v12/bits/basic_string.tcc ****       if (this == std::__addressof(__s))
  63:/usr/lib/gcc/x86_64-pc-linux-gnu/12/include/g++-v12/bits/basic_string.tcc **** 	return;
  64:/usr/lib/gcc/x86_64-pc-linux-gnu/12/include/g++-v12/bits/basic_string.tcc **** 
  65:/usr/lib/gcc/x86_64-pc-linux-gnu/12/include/g++-v12/bits/basic_string.tcc ****       _Alloc_traits::_S_on_swap(_M_get_allocator(), __s._M_get_allocator());
  66:/usr/lib/gcc/x86_64-pc-linux-gnu/12/include/g++-v12/bits/basic_string.tcc **** 
  67:/usr/lib/gcc/x86_64-pc-linux-gnu/12/include/g++-v12/bits/basic_string.tcc ****       if (_M_is_local())
  68:/usr/lib/gcc/x86_64-pc-linux-gnu/12/include/g++-v12/bits/basic_string.tcc **** 	if (__s._M_is_local())
  69:/usr/lib/gcc/x86_64-pc-linux-gnu/12/include/g++-v12/bits/basic_string.tcc **** 	  {
  70:/usr/lib/gcc/x86_64-pc-linux-gnu/12/include/g++-v12/bits/basic_string.tcc **** 	    if (length() && __s.length())
  71:/usr/lib/gcc/x86_64-pc-linux-gnu/12/include/g++-v12/bits/basic_string.tcc **** 	      {
  72:/usr/lib/gcc/x86_64-pc-linux-gnu/12/include/g++-v12/bits/basic_string.tcc **** 		_CharT __tmp_data[_S_local_capacity + 1];
  73:/usr/lib/gcc/x86_64-pc-linux-gnu/12/include/g++-v12/bits/basic_string.tcc **** 		traits_type::copy(__tmp_data, __s._M_local_buf,
  74:/usr/lib/gcc/x86_64-pc-linux-gnu/12/include/g++-v12/bits/basic_string.tcc **** 				  __s.length() + 1);
  75:/usr/lib/gcc/x86_64-pc-linux-gnu/12/include/g++-v12/bits/basic_string.tcc **** 		traits_type::copy(__s._M_local_buf, _M_local_buf,
  76:/usr/lib/gcc/x86_64-pc-linux-gnu/12/include/g++-v12/bits/basic_string.tcc **** 				  length() + 1);
  77:/usr/lib/gcc/x86_64-pc-linux-gnu/12/include/g++-v12/bits/basic_string.tcc **** 		traits_type::copy(_M_local_buf, __tmp_data,
  78:/usr/lib/gcc/x86_64-pc-linux-gnu/12/include/g++-v12/bits/basic_string.tcc **** 				  __s.length() + 1);
  79:/usr/lib/gcc/x86_64-pc-linux-gnu/12/include/g++-v12/bits/basic_string.tcc **** 	      }
  80:/usr/lib/gcc/x86_64-pc-linux-gnu/12/include/g++-v12/bits/basic_string.tcc **** 	    else if (__s.length())
  81:/usr/lib/gcc/x86_64-pc-linux-gnu/12/include/g++-v12/bits/basic_string.tcc **** 	      {
  82:/usr/lib/gcc/x86_64-pc-linux-gnu/12/include/g++-v12/bits/basic_string.tcc **** 		traits_type::copy(_M_local_buf, __s._M_local_buf,
  83:/usr/lib/gcc/x86_64-pc-linux-gnu/12/include/g++-v12/bits/basic_string.tcc **** 				  __s.length() + 1);
  84:/usr/lib/gcc/x86_64-pc-linux-gnu/12/include/g++-v12/bits/basic_string.tcc **** 		_M_length(__s.length());
  85:/usr/lib/gcc/x86_64-pc-linux-gnu/12/include/g++-v12/bits/basic_string.tcc **** 		__s._M_set_length(0);
  86:/usr/lib/gcc/x86_64-pc-linux-gnu/12/include/g++-v12/bits/basic_string.tcc **** 		return;
  87:/usr/lib/gcc/x86_64-pc-linux-gnu/12/include/g++-v12/bits/basic_string.tcc **** 	      }
  88:/usr/lib/gcc/x86_64-pc-linux-gnu/12/include/g++-v12/bits/basic_string.tcc **** 	    else if (length())
  89:/usr/lib/gcc/x86_64-pc-linux-gnu/12/include/g++-v12/bits/basic_string.tcc **** 	      {
  90:/usr/lib/gcc/x86_64-pc-linux-gnu/12/include/g++-v12/bits/basic_string.tcc **** 		traits_type::copy(__s._M_local_buf, _M_local_buf,
  91:/usr/lib/gcc/x86_64-pc-linux-gnu/12/include/g++-v12/bits/basic_string.tcc **** 				  length() + 1);
  92:/usr/lib/gcc/x86_64-pc-linux-gnu/12/include/g++-v12/bits/basic_string.tcc **** 		__s._M_length(length());
  93:/usr/lib/gcc/x86_64-pc-linux-gnu/12/include/g++-v12/bits/basic_string.tcc **** 		_M_set_length(0);
  94:/usr/lib/gcc/x86_64-pc-linux-gnu/12/include/g++-v12/bits/basic_string.tcc **** 		return;
  95:/usr/lib/gcc/x86_64-pc-linux-gnu/12/include/g++-v12/bits/basic_string.tcc **** 	      }
  96:/usr/lib/gcc/x86_64-pc-linux-gnu/12/include/g++-v12/bits/basic_string.tcc **** 	  }
  97:/usr/lib/gcc/x86_64-pc-linux-gnu/12/include/g++-v12/bits/basic_string.tcc **** 	else
  98:/usr/lib/gcc/x86_64-pc-linux-gnu/12/include/g++-v12/bits/basic_string.tcc **** 	  {
  99:/usr/lib/gcc/x86_64-pc-linux-gnu/12/include/g++-v12/bits/basic_string.tcc **** 	    const size_type __tmp_capacity = __s._M_allocated_capacity;
 100:/usr/lib/gcc/x86_64-pc-linux-gnu/12/include/g++-v12/bits/basic_string.tcc **** 	    traits_type::copy(__s._M_local_buf, _M_local_buf,
 101:/usr/lib/gcc/x86_64-pc-linux-gnu/12/include/g++-v12/bits/basic_string.tcc **** 			      length() + 1);
 102:/usr/lib/gcc/x86_64-pc-linux-gnu/12/include/g++-v12/bits/basic_string.tcc **** 	    _M_data(__s._M_data());
 103:/usr/lib/gcc/x86_64-pc-linux-gnu/12/include/g++-v12/bits/basic_string.tcc **** 	    __s._M_data(__s._M_local_buf);
 104:/usr/lib/gcc/x86_64-pc-linux-gnu/12/include/g++-v12/bits/basic_string.tcc **** 	    _M_capacity(__tmp_capacity);
 105:/usr/lib/gcc/x86_64-pc-linux-gnu/12/include/g++-v12/bits/basic_string.tcc **** 	  }
 106:/usr/lib/gcc/x86_64-pc-linux-gnu/12/include/g++-v12/bits/basic_string.tcc ****       else
 107:/usr/lib/gcc/x86_64-pc-linux-gnu/12/include/g++-v12/bits/basic_string.tcc **** 	{
 108:/usr/lib/gcc/x86_64-pc-linux-gnu/12/include/g++-v12/bits/basic_string.tcc **** 	  const size_type __tmp_capacity = _M_allocated_capacity;
 109:/usr/lib/gcc/x86_64-pc-linux-gnu/12/include/g++-v12/bits/basic_string.tcc **** 	  if (__s._M_is_local())
 110:/usr/lib/gcc/x86_64-pc-linux-gnu/12/include/g++-v12/bits/basic_string.tcc **** 	    {
 111:/usr/lib/gcc/x86_64-pc-linux-gnu/12/include/g++-v12/bits/basic_string.tcc **** 	      traits_type::copy(_M_local_buf, __s._M_local_buf,
 112:/usr/lib/gcc/x86_64-pc-linux-gnu/12/include/g++-v12/bits/basic_string.tcc **** 				__s.length() + 1);
 113:/usr/lib/gcc/x86_64-pc-linux-gnu/12/include/g++-v12/bits/basic_string.tcc **** 	      __s._M_data(_M_data());
 114:/usr/lib/gcc/x86_64-pc-linux-gnu/12/include/g++-v12/bits/basic_string.tcc **** 	      _M_data(_M_local_buf);
 115:/usr/lib/gcc/x86_64-pc-linux-gnu/12/include/g++-v12/bits/basic_string.tcc **** 	    }
 116:/usr/lib/gcc/x86_64-pc-linux-gnu/12/include/g++-v12/bits/basic_string.tcc **** 	  else
 117:/usr/lib/gcc/x86_64-pc-linux-gnu/12/include/g++-v12/bits/basic_string.tcc **** 	    {
GAS LISTING /tmp/cce3XYli.s 			page 44


 118:/usr/lib/gcc/x86_64-pc-linux-gnu/12/include/g++-v12/bits/basic_string.tcc **** 	      pointer __tmp_ptr = _M_data();
 119:/usr/lib/gcc/x86_64-pc-linux-gnu/12/include/g++-v12/bits/basic_string.tcc **** 	      _M_data(__s._M_data());
 120:/usr/lib/gcc/x86_64-pc-linux-gnu/12/include/g++-v12/bits/basic_string.tcc **** 	      __s._M_data(__tmp_ptr);
 121:/usr/lib/gcc/x86_64-pc-linux-gnu/12/include/g++-v12/bits/basic_string.tcc **** 	      _M_capacity(__s._M_allocated_capacity);
 122:/usr/lib/gcc/x86_64-pc-linux-gnu/12/include/g++-v12/bits/basic_string.tcc **** 	    }
 123:/usr/lib/gcc/x86_64-pc-linux-gnu/12/include/g++-v12/bits/basic_string.tcc **** 	  __s._M_capacity(__tmp_capacity);
 124:/usr/lib/gcc/x86_64-pc-linux-gnu/12/include/g++-v12/bits/basic_string.tcc **** 	}
 125:/usr/lib/gcc/x86_64-pc-linux-gnu/12/include/g++-v12/bits/basic_string.tcc **** 
 126:/usr/lib/gcc/x86_64-pc-linux-gnu/12/include/g++-v12/bits/basic_string.tcc ****       const size_type __tmp_length = length();
 127:/usr/lib/gcc/x86_64-pc-linux-gnu/12/include/g++-v12/bits/basic_string.tcc ****       _M_length(__s.length());
 128:/usr/lib/gcc/x86_64-pc-linux-gnu/12/include/g++-v12/bits/basic_string.tcc ****       __s._M_length(__tmp_length);
 129:/usr/lib/gcc/x86_64-pc-linux-gnu/12/include/g++-v12/bits/basic_string.tcc ****     }
 130:/usr/lib/gcc/x86_64-pc-linux-gnu/12/include/g++-v12/bits/basic_string.tcc **** 
 131:/usr/lib/gcc/x86_64-pc-linux-gnu/12/include/g++-v12/bits/basic_string.tcc ****   template<typename _CharT, typename _Traits, typename _Alloc>
 132:/usr/lib/gcc/x86_64-pc-linux-gnu/12/include/g++-v12/bits/basic_string.tcc ****     _GLIBCXX20_CONSTEXPR
 133:/usr/lib/gcc/x86_64-pc-linux-gnu/12/include/g++-v12/bits/basic_string.tcc ****     typename basic_string<_CharT, _Traits, _Alloc>::pointer
 134:/usr/lib/gcc/x86_64-pc-linux-gnu/12/include/g++-v12/bits/basic_string.tcc ****     basic_string<_CharT, _Traits, _Alloc>::
 135:/usr/lib/gcc/x86_64-pc-linux-gnu/12/include/g++-v12/bits/basic_string.tcc ****     _M_create(size_type& __capacity, size_type __old_capacity)
 136:/usr/lib/gcc/x86_64-pc-linux-gnu/12/include/g++-v12/bits/basic_string.tcc ****     {
 137:/usr/lib/gcc/x86_64-pc-linux-gnu/12/include/g++-v12/bits/basic_string.tcc ****       // _GLIBCXX_RESOLVE_LIB_DEFECTS
 138:/usr/lib/gcc/x86_64-pc-linux-gnu/12/include/g++-v12/bits/basic_string.tcc ****       // 83.  String::npos vs. string::max_size()
 139:/usr/lib/gcc/x86_64-pc-linux-gnu/12/include/g++-v12/bits/basic_string.tcc ****       if (__capacity > max_size())
 140:/usr/lib/gcc/x86_64-pc-linux-gnu/12/include/g++-v12/bits/basic_string.tcc **** 	std::__throw_length_error(__N("basic_string::_M_create"));
 141:/usr/lib/gcc/x86_64-pc-linux-gnu/12/include/g++-v12/bits/basic_string.tcc **** 
 142:/usr/lib/gcc/x86_64-pc-linux-gnu/12/include/g++-v12/bits/basic_string.tcc ****       // The below implements an exponential growth policy, necessary to
 143:/usr/lib/gcc/x86_64-pc-linux-gnu/12/include/g++-v12/bits/basic_string.tcc ****       // meet amortized linear time requirements of the library: see
 144:/usr/lib/gcc/x86_64-pc-linux-gnu/12/include/g++-v12/bits/basic_string.tcc ****       // http://gcc.gnu.org/ml/libstdc++/2001-07/msg00085.html.
 145:/usr/lib/gcc/x86_64-pc-linux-gnu/12/include/g++-v12/bits/basic_string.tcc ****       if (__capacity > __old_capacity && __capacity < 2 * __old_capacity)
 146:/usr/lib/gcc/x86_64-pc-linux-gnu/12/include/g++-v12/bits/basic_string.tcc **** 	{
 147:/usr/lib/gcc/x86_64-pc-linux-gnu/12/include/g++-v12/bits/basic_string.tcc **** 	  __capacity = 2 * __old_capacity;
 148:/usr/lib/gcc/x86_64-pc-linux-gnu/12/include/g++-v12/bits/basic_string.tcc **** 	  // Never allocate a string bigger than max_size.
 149:/usr/lib/gcc/x86_64-pc-linux-gnu/12/include/g++-v12/bits/basic_string.tcc **** 	  if (__capacity > max_size())
 150:/usr/lib/gcc/x86_64-pc-linux-gnu/12/include/g++-v12/bits/basic_string.tcc **** 	    __capacity = max_size();
 151:/usr/lib/gcc/x86_64-pc-linux-gnu/12/include/g++-v12/bits/basic_string.tcc **** 	}
 152:/usr/lib/gcc/x86_64-pc-linux-gnu/12/include/g++-v12/bits/basic_string.tcc **** 
 153:/usr/lib/gcc/x86_64-pc-linux-gnu/12/include/g++-v12/bits/basic_string.tcc ****       // NB: Need an array of char_type[__capacity], plus a terminating
 154:/usr/lib/gcc/x86_64-pc-linux-gnu/12/include/g++-v12/bits/basic_string.tcc ****       // null char_type() element.
 155:/usr/lib/gcc/x86_64-pc-linux-gnu/12/include/g++-v12/bits/basic_string.tcc ****       return _Alloc_traits::allocate(_M_get_allocator(), __capacity + 1);
 156:/usr/lib/gcc/x86_64-pc-linux-gnu/12/include/g++-v12/bits/basic_string.tcc ****     }
 157:/usr/lib/gcc/x86_64-pc-linux-gnu/12/include/g++-v12/bits/basic_string.tcc **** 
 158:/usr/lib/gcc/x86_64-pc-linux-gnu/12/include/g++-v12/bits/basic_string.tcc ****   // NB: This is the special case for Input Iterators, used in
 159:/usr/lib/gcc/x86_64-pc-linux-gnu/12/include/g++-v12/bits/basic_string.tcc ****   // istreambuf_iterators, etc.
 160:/usr/lib/gcc/x86_64-pc-linux-gnu/12/include/g++-v12/bits/basic_string.tcc ****   // Input Iterators have a cost structure very different from
 161:/usr/lib/gcc/x86_64-pc-linux-gnu/12/include/g++-v12/bits/basic_string.tcc ****   // pointers, calling for a different coding style.
 162:/usr/lib/gcc/x86_64-pc-linux-gnu/12/include/g++-v12/bits/basic_string.tcc ****   template<typename _CharT, typename _Traits, typename _Alloc>
 163:/usr/lib/gcc/x86_64-pc-linux-gnu/12/include/g++-v12/bits/basic_string.tcc ****     template<typename _InIterator>
 164:/usr/lib/gcc/x86_64-pc-linux-gnu/12/include/g++-v12/bits/basic_string.tcc ****       _GLIBCXX20_CONSTEXPR
 165:/usr/lib/gcc/x86_64-pc-linux-gnu/12/include/g++-v12/bits/basic_string.tcc ****       void
 166:/usr/lib/gcc/x86_64-pc-linux-gnu/12/include/g++-v12/bits/basic_string.tcc ****       basic_string<_CharT, _Traits, _Alloc>::
 167:/usr/lib/gcc/x86_64-pc-linux-gnu/12/include/g++-v12/bits/basic_string.tcc ****       _M_construct(_InIterator __beg, _InIterator __end,
 168:/usr/lib/gcc/x86_64-pc-linux-gnu/12/include/g++-v12/bits/basic_string.tcc **** 		   std::input_iterator_tag)
 169:/usr/lib/gcc/x86_64-pc-linux-gnu/12/include/g++-v12/bits/basic_string.tcc ****       {
 170:/usr/lib/gcc/x86_64-pc-linux-gnu/12/include/g++-v12/bits/basic_string.tcc **** 	size_type __len = 0;
 171:/usr/lib/gcc/x86_64-pc-linux-gnu/12/include/g++-v12/bits/basic_string.tcc **** 	size_type __capacity = size_type(_S_local_capacity);
 172:/usr/lib/gcc/x86_64-pc-linux-gnu/12/include/g++-v12/bits/basic_string.tcc **** 
 173:/usr/lib/gcc/x86_64-pc-linux-gnu/12/include/g++-v12/bits/basic_string.tcc **** 	pointer __p = _M_use_local_data();
 174:/usr/lib/gcc/x86_64-pc-linux-gnu/12/include/g++-v12/bits/basic_string.tcc **** 
GAS LISTING /tmp/cce3XYli.s 			page 45


 175:/usr/lib/gcc/x86_64-pc-linux-gnu/12/include/g++-v12/bits/basic_string.tcc **** 	while (__beg != __end && __len < __capacity)
 176:/usr/lib/gcc/x86_64-pc-linux-gnu/12/include/g++-v12/bits/basic_string.tcc **** 	  {
 177:/usr/lib/gcc/x86_64-pc-linux-gnu/12/include/g++-v12/bits/basic_string.tcc **** 	    __p[__len++] = *__beg;
 178:/usr/lib/gcc/x86_64-pc-linux-gnu/12/include/g++-v12/bits/basic_string.tcc **** 	    ++__beg;
 179:/usr/lib/gcc/x86_64-pc-linux-gnu/12/include/g++-v12/bits/basic_string.tcc **** 	  }
 180:/usr/lib/gcc/x86_64-pc-linux-gnu/12/include/g++-v12/bits/basic_string.tcc **** 
 181:/usr/lib/gcc/x86_64-pc-linux-gnu/12/include/g++-v12/bits/basic_string.tcc **** 	struct _Guard
 182:/usr/lib/gcc/x86_64-pc-linux-gnu/12/include/g++-v12/bits/basic_string.tcc **** 	{
 183:/usr/lib/gcc/x86_64-pc-linux-gnu/12/include/g++-v12/bits/basic_string.tcc **** 	  _GLIBCXX20_CONSTEXPR
 184:/usr/lib/gcc/x86_64-pc-linux-gnu/12/include/g++-v12/bits/basic_string.tcc **** 	  explicit _Guard(basic_string* __s) : _M_guarded(__s) { }
 185:/usr/lib/gcc/x86_64-pc-linux-gnu/12/include/g++-v12/bits/basic_string.tcc **** 
 186:/usr/lib/gcc/x86_64-pc-linux-gnu/12/include/g++-v12/bits/basic_string.tcc **** 	  _GLIBCXX20_CONSTEXPR
 187:/usr/lib/gcc/x86_64-pc-linux-gnu/12/include/g++-v12/bits/basic_string.tcc **** 	  ~_Guard() { if (_M_guarded) _M_guarded->_M_dispose(); }
 188:/usr/lib/gcc/x86_64-pc-linux-gnu/12/include/g++-v12/bits/basic_string.tcc **** 
 189:/usr/lib/gcc/x86_64-pc-linux-gnu/12/include/g++-v12/bits/basic_string.tcc **** 	  basic_string* _M_guarded;
 190:/usr/lib/gcc/x86_64-pc-linux-gnu/12/include/g++-v12/bits/basic_string.tcc **** 	} __guard(this);
 191:/usr/lib/gcc/x86_64-pc-linux-gnu/12/include/g++-v12/bits/basic_string.tcc **** 
 192:/usr/lib/gcc/x86_64-pc-linux-gnu/12/include/g++-v12/bits/basic_string.tcc **** 	while (__beg != __end)
 193:/usr/lib/gcc/x86_64-pc-linux-gnu/12/include/g++-v12/bits/basic_string.tcc **** 	  {
 194:/usr/lib/gcc/x86_64-pc-linux-gnu/12/include/g++-v12/bits/basic_string.tcc **** 	    if (__len == __capacity)
 195:/usr/lib/gcc/x86_64-pc-linux-gnu/12/include/g++-v12/bits/basic_string.tcc **** 	      {
 196:/usr/lib/gcc/x86_64-pc-linux-gnu/12/include/g++-v12/bits/basic_string.tcc **** 		// Allocate more space.
 197:/usr/lib/gcc/x86_64-pc-linux-gnu/12/include/g++-v12/bits/basic_string.tcc **** 		__capacity = __len + 1;
 198:/usr/lib/gcc/x86_64-pc-linux-gnu/12/include/g++-v12/bits/basic_string.tcc **** 		pointer __another = _M_create(__capacity, __len);
 199:/usr/lib/gcc/x86_64-pc-linux-gnu/12/include/g++-v12/bits/basic_string.tcc **** 		this->_S_copy(__another, _M_data(), __len);
 200:/usr/lib/gcc/x86_64-pc-linux-gnu/12/include/g++-v12/bits/basic_string.tcc **** 		_M_dispose();
 201:/usr/lib/gcc/x86_64-pc-linux-gnu/12/include/g++-v12/bits/basic_string.tcc **** 		_M_data(__another);
 202:/usr/lib/gcc/x86_64-pc-linux-gnu/12/include/g++-v12/bits/basic_string.tcc **** 		_M_capacity(__capacity);
 203:/usr/lib/gcc/x86_64-pc-linux-gnu/12/include/g++-v12/bits/basic_string.tcc **** 	      }
 204:/usr/lib/gcc/x86_64-pc-linux-gnu/12/include/g++-v12/bits/basic_string.tcc **** 	    traits_type::assign(_M_data()[__len++], *__beg);
 205:/usr/lib/gcc/x86_64-pc-linux-gnu/12/include/g++-v12/bits/basic_string.tcc **** 	    ++__beg;
 206:/usr/lib/gcc/x86_64-pc-linux-gnu/12/include/g++-v12/bits/basic_string.tcc **** 	  }
 207:/usr/lib/gcc/x86_64-pc-linux-gnu/12/include/g++-v12/bits/basic_string.tcc **** 
 208:/usr/lib/gcc/x86_64-pc-linux-gnu/12/include/g++-v12/bits/basic_string.tcc **** 	__guard._M_guarded = 0;
 209:/usr/lib/gcc/x86_64-pc-linux-gnu/12/include/g++-v12/bits/basic_string.tcc **** 
 210:/usr/lib/gcc/x86_64-pc-linux-gnu/12/include/g++-v12/bits/basic_string.tcc **** 	_M_set_length(__len);
 211:/usr/lib/gcc/x86_64-pc-linux-gnu/12/include/g++-v12/bits/basic_string.tcc ****       }
 212:/usr/lib/gcc/x86_64-pc-linux-gnu/12/include/g++-v12/bits/basic_string.tcc **** 
 213:/usr/lib/gcc/x86_64-pc-linux-gnu/12/include/g++-v12/bits/basic_string.tcc ****   template<typename _CharT, typename _Traits, typename _Alloc>
 214:/usr/lib/gcc/x86_64-pc-linux-gnu/12/include/g++-v12/bits/basic_string.tcc ****     template<typename _InIterator>
 215:/usr/lib/gcc/x86_64-pc-linux-gnu/12/include/g++-v12/bits/basic_string.tcc ****       _GLIBCXX20_CONSTEXPR
 216:/usr/lib/gcc/x86_64-pc-linux-gnu/12/include/g++-v12/bits/basic_string.tcc ****       void
 217:/usr/lib/gcc/x86_64-pc-linux-gnu/12/include/g++-v12/bits/basic_string.tcc ****       basic_string<_CharT, _Traits, _Alloc>::
 613              		.loc 7 217 7 is_stmt 1 view -0
 614              		.cfi_startproc
 615              		.loc 7 217 7 is_stmt 0 view .LVU175
 616 0000 4154     		pushq	%r12
 617              		.cfi_def_cfa_offset 16
 618              		.cfi_offset 12, -16
 619 0002 55       		pushq	%rbp
 620              		.cfi_def_cfa_offset 24
 621              		.cfi_offset 6, -24
 622 0003 53       		pushq	%rbx
 623              		.cfi_def_cfa_offset 32
 624              		.cfi_offset 3, -32
 625 0004 4889FD   		movq	%rdi, %rbp
 626 0007 4989F4   		movq	%rsi, %r12
GAS LISTING /tmp/cce3XYli.s 			page 46


 627              	.LVL53:
 628              	.LBB573:
 629              	.LBI573:
 630              		.file 8 "/usr/lib/gcc/x86_64-pc-linux-gnu/12/include/g++-v12/bits/stl_iterator_base_funcs.h"
   1:/usr/lib/gcc/x86_64-pc-linux-gnu/12/include/g++-v12/bits/stl_iterator_base_funcs.h **** // Functions used by iterators -*- C++ -*-
   2:/usr/lib/gcc/x86_64-pc-linux-gnu/12/include/g++-v12/bits/stl_iterator_base_funcs.h **** 
   3:/usr/lib/gcc/x86_64-pc-linux-gnu/12/include/g++-v12/bits/stl_iterator_base_funcs.h **** // Copyright (C) 2001-2022 Free Software Foundation, Inc.
   4:/usr/lib/gcc/x86_64-pc-linux-gnu/12/include/g++-v12/bits/stl_iterator_base_funcs.h **** //
   5:/usr/lib/gcc/x86_64-pc-linux-gnu/12/include/g++-v12/bits/stl_iterator_base_funcs.h **** // This file is part of the GNU ISO C++ Library.  This library is free
   6:/usr/lib/gcc/x86_64-pc-linux-gnu/12/include/g++-v12/bits/stl_iterator_base_funcs.h **** // software; you can redistribute it and/or modify it under the
   7:/usr/lib/gcc/x86_64-pc-linux-gnu/12/include/g++-v12/bits/stl_iterator_base_funcs.h **** // terms of the GNU General Public License as published by the
   8:/usr/lib/gcc/x86_64-pc-linux-gnu/12/include/g++-v12/bits/stl_iterator_base_funcs.h **** // Free Software Foundation; either version 3, or (at your option)
   9:/usr/lib/gcc/x86_64-pc-linux-gnu/12/include/g++-v12/bits/stl_iterator_base_funcs.h **** // any later version.
  10:/usr/lib/gcc/x86_64-pc-linux-gnu/12/include/g++-v12/bits/stl_iterator_base_funcs.h **** 
  11:/usr/lib/gcc/x86_64-pc-linux-gnu/12/include/g++-v12/bits/stl_iterator_base_funcs.h **** // This library is distributed in the hope that it will be useful,
  12:/usr/lib/gcc/x86_64-pc-linux-gnu/12/include/g++-v12/bits/stl_iterator_base_funcs.h **** // but WITHOUT ANY WARRANTY; without even the implied warranty of
  13:/usr/lib/gcc/x86_64-pc-linux-gnu/12/include/g++-v12/bits/stl_iterator_base_funcs.h **** // MERCHANTABILITY or FITNESS FOR A PARTICULAR PURPOSE.  See the
  14:/usr/lib/gcc/x86_64-pc-linux-gnu/12/include/g++-v12/bits/stl_iterator_base_funcs.h **** // GNU General Public License for more details.
  15:/usr/lib/gcc/x86_64-pc-linux-gnu/12/include/g++-v12/bits/stl_iterator_base_funcs.h **** 
  16:/usr/lib/gcc/x86_64-pc-linux-gnu/12/include/g++-v12/bits/stl_iterator_base_funcs.h **** // Under Section 7 of GPL version 3, you are granted additional
  17:/usr/lib/gcc/x86_64-pc-linux-gnu/12/include/g++-v12/bits/stl_iterator_base_funcs.h **** // permissions described in the GCC Runtime Library Exception, version
  18:/usr/lib/gcc/x86_64-pc-linux-gnu/12/include/g++-v12/bits/stl_iterator_base_funcs.h **** // 3.1, as published by the Free Software Foundation.
  19:/usr/lib/gcc/x86_64-pc-linux-gnu/12/include/g++-v12/bits/stl_iterator_base_funcs.h **** 
  20:/usr/lib/gcc/x86_64-pc-linux-gnu/12/include/g++-v12/bits/stl_iterator_base_funcs.h **** // You should have received a copy of the GNU General Public License and
  21:/usr/lib/gcc/x86_64-pc-linux-gnu/12/include/g++-v12/bits/stl_iterator_base_funcs.h **** // a copy of the GCC Runtime Library Exception along with this program;
  22:/usr/lib/gcc/x86_64-pc-linux-gnu/12/include/g++-v12/bits/stl_iterator_base_funcs.h **** // see the files COPYING3 and COPYING.RUNTIME respectively.  If not, see
  23:/usr/lib/gcc/x86_64-pc-linux-gnu/12/include/g++-v12/bits/stl_iterator_base_funcs.h **** // <http://www.gnu.org/licenses/>.
  24:/usr/lib/gcc/x86_64-pc-linux-gnu/12/include/g++-v12/bits/stl_iterator_base_funcs.h **** 
  25:/usr/lib/gcc/x86_64-pc-linux-gnu/12/include/g++-v12/bits/stl_iterator_base_funcs.h **** /*
  26:/usr/lib/gcc/x86_64-pc-linux-gnu/12/include/g++-v12/bits/stl_iterator_base_funcs.h ****  *
  27:/usr/lib/gcc/x86_64-pc-linux-gnu/12/include/g++-v12/bits/stl_iterator_base_funcs.h ****  * Copyright (c) 1994
  28:/usr/lib/gcc/x86_64-pc-linux-gnu/12/include/g++-v12/bits/stl_iterator_base_funcs.h ****  * Hewlett-Packard Company
  29:/usr/lib/gcc/x86_64-pc-linux-gnu/12/include/g++-v12/bits/stl_iterator_base_funcs.h ****  *
  30:/usr/lib/gcc/x86_64-pc-linux-gnu/12/include/g++-v12/bits/stl_iterator_base_funcs.h ****  * Permission to use, copy, modify, distribute and sell this software
  31:/usr/lib/gcc/x86_64-pc-linux-gnu/12/include/g++-v12/bits/stl_iterator_base_funcs.h ****  * and its documentation for any purpose is hereby granted without fee,
  32:/usr/lib/gcc/x86_64-pc-linux-gnu/12/include/g++-v12/bits/stl_iterator_base_funcs.h ****  * provided that the above copyright notice appear in all copies and
  33:/usr/lib/gcc/x86_64-pc-linux-gnu/12/include/g++-v12/bits/stl_iterator_base_funcs.h ****  * that both that copyright notice and this permission notice appear
  34:/usr/lib/gcc/x86_64-pc-linux-gnu/12/include/g++-v12/bits/stl_iterator_base_funcs.h ****  * in supporting documentation.  Hewlett-Packard Company makes no
  35:/usr/lib/gcc/x86_64-pc-linux-gnu/12/include/g++-v12/bits/stl_iterator_base_funcs.h ****  * representations about the suitability of this software for any
  36:/usr/lib/gcc/x86_64-pc-linux-gnu/12/include/g++-v12/bits/stl_iterator_base_funcs.h ****  * purpose.  It is provided "as is" without express or implied warranty.
  37:/usr/lib/gcc/x86_64-pc-linux-gnu/12/include/g++-v12/bits/stl_iterator_base_funcs.h ****  *
  38:/usr/lib/gcc/x86_64-pc-linux-gnu/12/include/g++-v12/bits/stl_iterator_base_funcs.h ****  *
  39:/usr/lib/gcc/x86_64-pc-linux-gnu/12/include/g++-v12/bits/stl_iterator_base_funcs.h ****  * Copyright (c) 1996-1998
  40:/usr/lib/gcc/x86_64-pc-linux-gnu/12/include/g++-v12/bits/stl_iterator_base_funcs.h ****  * Silicon Graphics Computer Systems, Inc.
  41:/usr/lib/gcc/x86_64-pc-linux-gnu/12/include/g++-v12/bits/stl_iterator_base_funcs.h ****  *
  42:/usr/lib/gcc/x86_64-pc-linux-gnu/12/include/g++-v12/bits/stl_iterator_base_funcs.h ****  * Permission to use, copy, modify, distribute and sell this software
  43:/usr/lib/gcc/x86_64-pc-linux-gnu/12/include/g++-v12/bits/stl_iterator_base_funcs.h ****  * and its documentation for any purpose is hereby granted without fee,
  44:/usr/lib/gcc/x86_64-pc-linux-gnu/12/include/g++-v12/bits/stl_iterator_base_funcs.h ****  * provided that the above copyright notice appear in all copies and
  45:/usr/lib/gcc/x86_64-pc-linux-gnu/12/include/g++-v12/bits/stl_iterator_base_funcs.h ****  * that both that copyright notice and this permission notice appear
  46:/usr/lib/gcc/x86_64-pc-linux-gnu/12/include/g++-v12/bits/stl_iterator_base_funcs.h ****  * in supporting documentation.  Silicon Graphics makes no
  47:/usr/lib/gcc/x86_64-pc-linux-gnu/12/include/g++-v12/bits/stl_iterator_base_funcs.h ****  * representations about the suitability of this software for any
  48:/usr/lib/gcc/x86_64-pc-linux-gnu/12/include/g++-v12/bits/stl_iterator_base_funcs.h ****  * purpose.  It is provided "as is" without express or implied warranty.
  49:/usr/lib/gcc/x86_64-pc-linux-gnu/12/include/g++-v12/bits/stl_iterator_base_funcs.h ****  */
  50:/usr/lib/gcc/x86_64-pc-linux-gnu/12/include/g++-v12/bits/stl_iterator_base_funcs.h **** 
  51:/usr/lib/gcc/x86_64-pc-linux-gnu/12/include/g++-v12/bits/stl_iterator_base_funcs.h **** /** @file bits/stl_iterator_base_funcs.h
  52:/usr/lib/gcc/x86_64-pc-linux-gnu/12/include/g++-v12/bits/stl_iterator_base_funcs.h ****  *  This is an internal header file, included by other library headers.
  53:/usr/lib/gcc/x86_64-pc-linux-gnu/12/include/g++-v12/bits/stl_iterator_base_funcs.h ****  *  Do not attempt to use it directly. @headername{iterator}
GAS LISTING /tmp/cce3XYli.s 			page 47


  54:/usr/lib/gcc/x86_64-pc-linux-gnu/12/include/g++-v12/bits/stl_iterator_base_funcs.h ****  *
  55:/usr/lib/gcc/x86_64-pc-linux-gnu/12/include/g++-v12/bits/stl_iterator_base_funcs.h ****  *  This file contains all of the general iterator-related utility
  56:/usr/lib/gcc/x86_64-pc-linux-gnu/12/include/g++-v12/bits/stl_iterator_base_funcs.h ****  *  functions, such as distance() and advance().
  57:/usr/lib/gcc/x86_64-pc-linux-gnu/12/include/g++-v12/bits/stl_iterator_base_funcs.h ****  */
  58:/usr/lib/gcc/x86_64-pc-linux-gnu/12/include/g++-v12/bits/stl_iterator_base_funcs.h **** 
  59:/usr/lib/gcc/x86_64-pc-linux-gnu/12/include/g++-v12/bits/stl_iterator_base_funcs.h **** #ifndef _STL_ITERATOR_BASE_FUNCS_H
  60:/usr/lib/gcc/x86_64-pc-linux-gnu/12/include/g++-v12/bits/stl_iterator_base_funcs.h **** #define _STL_ITERATOR_BASE_FUNCS_H 1
  61:/usr/lib/gcc/x86_64-pc-linux-gnu/12/include/g++-v12/bits/stl_iterator_base_funcs.h **** 
  62:/usr/lib/gcc/x86_64-pc-linux-gnu/12/include/g++-v12/bits/stl_iterator_base_funcs.h **** #pragma GCC system_header
  63:/usr/lib/gcc/x86_64-pc-linux-gnu/12/include/g++-v12/bits/stl_iterator_base_funcs.h **** 
  64:/usr/lib/gcc/x86_64-pc-linux-gnu/12/include/g++-v12/bits/stl_iterator_base_funcs.h **** #include <bits/concept_check.h>
  65:/usr/lib/gcc/x86_64-pc-linux-gnu/12/include/g++-v12/bits/stl_iterator_base_funcs.h **** #include <debug/assertions.h>
  66:/usr/lib/gcc/x86_64-pc-linux-gnu/12/include/g++-v12/bits/stl_iterator_base_funcs.h **** #include <bits/stl_iterator_base_types.h>
  67:/usr/lib/gcc/x86_64-pc-linux-gnu/12/include/g++-v12/bits/stl_iterator_base_funcs.h **** 
  68:/usr/lib/gcc/x86_64-pc-linux-gnu/12/include/g++-v12/bits/stl_iterator_base_funcs.h **** namespace std _GLIBCXX_VISIBILITY(default)
  69:/usr/lib/gcc/x86_64-pc-linux-gnu/12/include/g++-v12/bits/stl_iterator_base_funcs.h **** {
  70:/usr/lib/gcc/x86_64-pc-linux-gnu/12/include/g++-v12/bits/stl_iterator_base_funcs.h **** _GLIBCXX_BEGIN_NAMESPACE_VERSION
  71:/usr/lib/gcc/x86_64-pc-linux-gnu/12/include/g++-v12/bits/stl_iterator_base_funcs.h **** 
  72:/usr/lib/gcc/x86_64-pc-linux-gnu/12/include/g++-v12/bits/stl_iterator_base_funcs.h **** _GLIBCXX_BEGIN_NAMESPACE_CONTAINER
  73:/usr/lib/gcc/x86_64-pc-linux-gnu/12/include/g++-v12/bits/stl_iterator_base_funcs.h ****   // Forward declaration for the overloads of __distance.
  74:/usr/lib/gcc/x86_64-pc-linux-gnu/12/include/g++-v12/bits/stl_iterator_base_funcs.h ****   template <typename> struct _List_iterator;
  75:/usr/lib/gcc/x86_64-pc-linux-gnu/12/include/g++-v12/bits/stl_iterator_base_funcs.h ****   template <typename> struct _List_const_iterator;
  76:/usr/lib/gcc/x86_64-pc-linux-gnu/12/include/g++-v12/bits/stl_iterator_base_funcs.h **** _GLIBCXX_END_NAMESPACE_CONTAINER
  77:/usr/lib/gcc/x86_64-pc-linux-gnu/12/include/g++-v12/bits/stl_iterator_base_funcs.h **** 
  78:/usr/lib/gcc/x86_64-pc-linux-gnu/12/include/g++-v12/bits/stl_iterator_base_funcs.h ****   template<typename _InputIterator>
  79:/usr/lib/gcc/x86_64-pc-linux-gnu/12/include/g++-v12/bits/stl_iterator_base_funcs.h ****     inline _GLIBCXX14_CONSTEXPR
  80:/usr/lib/gcc/x86_64-pc-linux-gnu/12/include/g++-v12/bits/stl_iterator_base_funcs.h ****     typename iterator_traits<_InputIterator>::difference_type
  81:/usr/lib/gcc/x86_64-pc-linux-gnu/12/include/g++-v12/bits/stl_iterator_base_funcs.h ****     __distance(_InputIterator __first, _InputIterator __last,
  82:/usr/lib/gcc/x86_64-pc-linux-gnu/12/include/g++-v12/bits/stl_iterator_base_funcs.h ****                input_iterator_tag)
  83:/usr/lib/gcc/x86_64-pc-linux-gnu/12/include/g++-v12/bits/stl_iterator_base_funcs.h ****     {
  84:/usr/lib/gcc/x86_64-pc-linux-gnu/12/include/g++-v12/bits/stl_iterator_base_funcs.h ****       // concept requirements
  85:/usr/lib/gcc/x86_64-pc-linux-gnu/12/include/g++-v12/bits/stl_iterator_base_funcs.h ****       __glibcxx_function_requires(_InputIteratorConcept<_InputIterator>)
  86:/usr/lib/gcc/x86_64-pc-linux-gnu/12/include/g++-v12/bits/stl_iterator_base_funcs.h **** 
  87:/usr/lib/gcc/x86_64-pc-linux-gnu/12/include/g++-v12/bits/stl_iterator_base_funcs.h ****       typename iterator_traits<_InputIterator>::difference_type __n = 0;
  88:/usr/lib/gcc/x86_64-pc-linux-gnu/12/include/g++-v12/bits/stl_iterator_base_funcs.h ****       while (__first != __last)
  89:/usr/lib/gcc/x86_64-pc-linux-gnu/12/include/g++-v12/bits/stl_iterator_base_funcs.h **** 	{
  90:/usr/lib/gcc/x86_64-pc-linux-gnu/12/include/g++-v12/bits/stl_iterator_base_funcs.h **** 	  ++__first;
  91:/usr/lib/gcc/x86_64-pc-linux-gnu/12/include/g++-v12/bits/stl_iterator_base_funcs.h **** 	  ++__n;
  92:/usr/lib/gcc/x86_64-pc-linux-gnu/12/include/g++-v12/bits/stl_iterator_base_funcs.h **** 	}
  93:/usr/lib/gcc/x86_64-pc-linux-gnu/12/include/g++-v12/bits/stl_iterator_base_funcs.h ****       return __n;
  94:/usr/lib/gcc/x86_64-pc-linux-gnu/12/include/g++-v12/bits/stl_iterator_base_funcs.h ****     }
  95:/usr/lib/gcc/x86_64-pc-linux-gnu/12/include/g++-v12/bits/stl_iterator_base_funcs.h **** 
  96:/usr/lib/gcc/x86_64-pc-linux-gnu/12/include/g++-v12/bits/stl_iterator_base_funcs.h ****   template<typename _RandomAccessIterator>
  97:/usr/lib/gcc/x86_64-pc-linux-gnu/12/include/g++-v12/bits/stl_iterator_base_funcs.h ****     inline _GLIBCXX14_CONSTEXPR
  98:/usr/lib/gcc/x86_64-pc-linux-gnu/12/include/g++-v12/bits/stl_iterator_base_funcs.h ****     typename iterator_traits<_RandomAccessIterator>::difference_type
  99:/usr/lib/gcc/x86_64-pc-linux-gnu/12/include/g++-v12/bits/stl_iterator_base_funcs.h ****     __distance(_RandomAccessIterator __first, _RandomAccessIterator __last,
 100:/usr/lib/gcc/x86_64-pc-linux-gnu/12/include/g++-v12/bits/stl_iterator_base_funcs.h ****                random_access_iterator_tag)
 101:/usr/lib/gcc/x86_64-pc-linux-gnu/12/include/g++-v12/bits/stl_iterator_base_funcs.h ****     {
 102:/usr/lib/gcc/x86_64-pc-linux-gnu/12/include/g++-v12/bits/stl_iterator_base_funcs.h ****       // concept requirements
 103:/usr/lib/gcc/x86_64-pc-linux-gnu/12/include/g++-v12/bits/stl_iterator_base_funcs.h ****       __glibcxx_function_requires(_RandomAccessIteratorConcept<
 104:/usr/lib/gcc/x86_64-pc-linux-gnu/12/include/g++-v12/bits/stl_iterator_base_funcs.h **** 				  _RandomAccessIterator>)
 105:/usr/lib/gcc/x86_64-pc-linux-gnu/12/include/g++-v12/bits/stl_iterator_base_funcs.h ****       return __last - __first;
 106:/usr/lib/gcc/x86_64-pc-linux-gnu/12/include/g++-v12/bits/stl_iterator_base_funcs.h ****     }
 107:/usr/lib/gcc/x86_64-pc-linux-gnu/12/include/g++-v12/bits/stl_iterator_base_funcs.h **** 
 108:/usr/lib/gcc/x86_64-pc-linux-gnu/12/include/g++-v12/bits/stl_iterator_base_funcs.h **** #if _GLIBCXX_USE_CXX11_ABI
 109:/usr/lib/gcc/x86_64-pc-linux-gnu/12/include/g++-v12/bits/stl_iterator_base_funcs.h ****   // Forward declaration because of the qualified call in distance.
 110:/usr/lib/gcc/x86_64-pc-linux-gnu/12/include/g++-v12/bits/stl_iterator_base_funcs.h ****   template<typename _Tp>
GAS LISTING /tmp/cce3XYli.s 			page 48


 111:/usr/lib/gcc/x86_64-pc-linux-gnu/12/include/g++-v12/bits/stl_iterator_base_funcs.h ****     ptrdiff_t
 112:/usr/lib/gcc/x86_64-pc-linux-gnu/12/include/g++-v12/bits/stl_iterator_base_funcs.h ****     __distance(_GLIBCXX_STD_C::_List_iterator<_Tp>,
 113:/usr/lib/gcc/x86_64-pc-linux-gnu/12/include/g++-v12/bits/stl_iterator_base_funcs.h **** 	       _GLIBCXX_STD_C::_List_iterator<_Tp>,
 114:/usr/lib/gcc/x86_64-pc-linux-gnu/12/include/g++-v12/bits/stl_iterator_base_funcs.h **** 	       input_iterator_tag);
 115:/usr/lib/gcc/x86_64-pc-linux-gnu/12/include/g++-v12/bits/stl_iterator_base_funcs.h **** 
 116:/usr/lib/gcc/x86_64-pc-linux-gnu/12/include/g++-v12/bits/stl_iterator_base_funcs.h ****   template<typename _Tp>
 117:/usr/lib/gcc/x86_64-pc-linux-gnu/12/include/g++-v12/bits/stl_iterator_base_funcs.h ****     ptrdiff_t
 118:/usr/lib/gcc/x86_64-pc-linux-gnu/12/include/g++-v12/bits/stl_iterator_base_funcs.h ****     __distance(_GLIBCXX_STD_C::_List_const_iterator<_Tp>,
 119:/usr/lib/gcc/x86_64-pc-linux-gnu/12/include/g++-v12/bits/stl_iterator_base_funcs.h **** 	       _GLIBCXX_STD_C::_List_const_iterator<_Tp>,
 120:/usr/lib/gcc/x86_64-pc-linux-gnu/12/include/g++-v12/bits/stl_iterator_base_funcs.h **** 	       input_iterator_tag);
 121:/usr/lib/gcc/x86_64-pc-linux-gnu/12/include/g++-v12/bits/stl_iterator_base_funcs.h **** #endif
 122:/usr/lib/gcc/x86_64-pc-linux-gnu/12/include/g++-v12/bits/stl_iterator_base_funcs.h **** 
 123:/usr/lib/gcc/x86_64-pc-linux-gnu/12/include/g++-v12/bits/stl_iterator_base_funcs.h **** #if __cplusplus >= 201103L
 124:/usr/lib/gcc/x86_64-pc-linux-gnu/12/include/g++-v12/bits/stl_iterator_base_funcs.h ****   // Give better error if std::distance called with a non-Cpp17InputIterator.
 125:/usr/lib/gcc/x86_64-pc-linux-gnu/12/include/g++-v12/bits/stl_iterator_base_funcs.h ****   template<typename _OutputIterator>
 126:/usr/lib/gcc/x86_64-pc-linux-gnu/12/include/g++-v12/bits/stl_iterator_base_funcs.h ****     void
 127:/usr/lib/gcc/x86_64-pc-linux-gnu/12/include/g++-v12/bits/stl_iterator_base_funcs.h ****     __distance(_OutputIterator, _OutputIterator, output_iterator_tag) = delete;
 128:/usr/lib/gcc/x86_64-pc-linux-gnu/12/include/g++-v12/bits/stl_iterator_base_funcs.h **** #endif
 129:/usr/lib/gcc/x86_64-pc-linux-gnu/12/include/g++-v12/bits/stl_iterator_base_funcs.h **** 
 130:/usr/lib/gcc/x86_64-pc-linux-gnu/12/include/g++-v12/bits/stl_iterator_base_funcs.h ****   /**
 131:/usr/lib/gcc/x86_64-pc-linux-gnu/12/include/g++-v12/bits/stl_iterator_base_funcs.h ****    *  @brief A generalization of pointer arithmetic.
 132:/usr/lib/gcc/x86_64-pc-linux-gnu/12/include/g++-v12/bits/stl_iterator_base_funcs.h ****    *  @param  __first  An input iterator.
 133:/usr/lib/gcc/x86_64-pc-linux-gnu/12/include/g++-v12/bits/stl_iterator_base_funcs.h ****    *  @param  __last  An input iterator.
 134:/usr/lib/gcc/x86_64-pc-linux-gnu/12/include/g++-v12/bits/stl_iterator_base_funcs.h ****    *  @return  The distance between them.
 135:/usr/lib/gcc/x86_64-pc-linux-gnu/12/include/g++-v12/bits/stl_iterator_base_funcs.h ****    *
 136:/usr/lib/gcc/x86_64-pc-linux-gnu/12/include/g++-v12/bits/stl_iterator_base_funcs.h ****    *  Returns @c n such that __first + n == __last.  This requires
 137:/usr/lib/gcc/x86_64-pc-linux-gnu/12/include/g++-v12/bits/stl_iterator_base_funcs.h ****    *  that @p __last must be reachable from @p __first.  Note that @c
 138:/usr/lib/gcc/x86_64-pc-linux-gnu/12/include/g++-v12/bits/stl_iterator_base_funcs.h ****    *  n may be negative.
 139:/usr/lib/gcc/x86_64-pc-linux-gnu/12/include/g++-v12/bits/stl_iterator_base_funcs.h ****    *
 140:/usr/lib/gcc/x86_64-pc-linux-gnu/12/include/g++-v12/bits/stl_iterator_base_funcs.h ****    *  For random access iterators, this uses their @c + and @c - operations
 141:/usr/lib/gcc/x86_64-pc-linux-gnu/12/include/g++-v12/bits/stl_iterator_base_funcs.h ****    *  and are constant time.  For other %iterator classes they are linear time.
 142:/usr/lib/gcc/x86_64-pc-linux-gnu/12/include/g++-v12/bits/stl_iterator_base_funcs.h ****   */
 143:/usr/lib/gcc/x86_64-pc-linux-gnu/12/include/g++-v12/bits/stl_iterator_base_funcs.h ****   template<typename _InputIterator>
 144:/usr/lib/gcc/x86_64-pc-linux-gnu/12/include/g++-v12/bits/stl_iterator_base_funcs.h ****     _GLIBCXX_NODISCARD
 145:/usr/lib/gcc/x86_64-pc-linux-gnu/12/include/g++-v12/bits/stl_iterator_base_funcs.h ****     inline _GLIBCXX17_CONSTEXPR
 146:/usr/lib/gcc/x86_64-pc-linux-gnu/12/include/g++-v12/bits/stl_iterator_base_funcs.h ****     typename iterator_traits<_InputIterator>::difference_type
 147:/usr/lib/gcc/x86_64-pc-linux-gnu/12/include/g++-v12/bits/stl_iterator_base_funcs.h ****     distance(_InputIterator __first, _InputIterator __last)
 631              		.loc 8 147 5 is_stmt 1 view .LVU176
 632              	.LBB574:
 633              	.LBI574:
  99:/usr/lib/gcc/x86_64-pc-linux-gnu/12/include/g++-v12/bits/stl_iterator_base_funcs.h ****                random_access_iterator_tag)
 634              		.loc 8 99 5 view .LVU177
 635              	.LBB575:
 105:/usr/lib/gcc/x86_64-pc-linux-gnu/12/include/g++-v12/bits/stl_iterator_base_funcs.h ****     }
 636              		.loc 8 105 23 is_stmt 0 view .LVU178
 637 000a 4829F2   		subq	%rsi, %rdx
 638              	.LVL54:
 105:/usr/lib/gcc/x86_64-pc-linux-gnu/12/include/g++-v12/bits/stl_iterator_base_funcs.h ****     }
 639              		.loc 8 105 23 view .LVU179
 640 000d 4889D3   		movq	%rdx, %rbx
 641              	.LVL55:
 105:/usr/lib/gcc/x86_64-pc-linux-gnu/12/include/g++-v12/bits/stl_iterator_base_funcs.h ****     }
 642              		.loc 8 105 23 view .LVU180
 643              	.LBE575:
 644              	.LBE574:
 645              	.LBE573:
 218:/usr/lib/gcc/x86_64-pc-linux-gnu/12/include/g++-v12/bits/basic_string.tcc ****       _M_construct(_InIterator __beg, _InIterator __end,
GAS LISTING /tmp/cce3XYli.s 			page 49


 219:/usr/lib/gcc/x86_64-pc-linux-gnu/12/include/g++-v12/bits/basic_string.tcc **** 		   std::forward_iterator_tag)
 220:/usr/lib/gcc/x86_64-pc-linux-gnu/12/include/g++-v12/bits/basic_string.tcc ****       {
 221:/usr/lib/gcc/x86_64-pc-linux-gnu/12/include/g++-v12/bits/basic_string.tcc **** 	size_type __dnew = static_cast<size_type>(std::distance(__beg, __end));
 222:/usr/lib/gcc/x86_64-pc-linux-gnu/12/include/g++-v12/bits/basic_string.tcc **** 
 223:/usr/lib/gcc/x86_64-pc-linux-gnu/12/include/g++-v12/bits/basic_string.tcc **** 	if (__dnew > size_type(_S_local_capacity))
 646              		.loc 7 223 2 view .LVU181
 647 0010 4883FA0F 		cmpq	$15, %rdx
 648 0014 7710     		ja	.L28
 649              	.LVL56:
 650              	.LBB576:
 651              	.LBI576:
 224:/usr/lib/gcc/x86_64-pc-linux-gnu/12/include/g++-v12/bits/basic_string.tcc **** 	  {
 225:/usr/lib/gcc/x86_64-pc-linux-gnu/12/include/g++-v12/bits/basic_string.tcc **** 	    _M_data(_M_create(__dnew, size_type(0)));
 226:/usr/lib/gcc/x86_64-pc-linux-gnu/12/include/g++-v12/bits/basic_string.tcc **** 	    _M_capacity(__dnew);
 227:/usr/lib/gcc/x86_64-pc-linux-gnu/12/include/g++-v12/bits/basic_string.tcc **** 	  }
 228:/usr/lib/gcc/x86_64-pc-linux-gnu/12/include/g++-v12/bits/basic_string.tcc **** 	else
 229:/usr/lib/gcc/x86_64-pc-linux-gnu/12/include/g++-v12/bits/basic_string.tcc **** 	  _M_use_local_data();
 230:/usr/lib/gcc/x86_64-pc-linux-gnu/12/include/g++-v12/bits/basic_string.tcc **** 
 231:/usr/lib/gcc/x86_64-pc-linux-gnu/12/include/g++-v12/bits/basic_string.tcc **** 	// Check for out_of_range and length_error exceptions.
 232:/usr/lib/gcc/x86_64-pc-linux-gnu/12/include/g++-v12/bits/basic_string.tcc **** 	struct _Guard
 233:/usr/lib/gcc/x86_64-pc-linux-gnu/12/include/g++-v12/bits/basic_string.tcc **** 	{
 234:/usr/lib/gcc/x86_64-pc-linux-gnu/12/include/g++-v12/bits/basic_string.tcc **** 	  _GLIBCXX20_CONSTEXPR
 235:/usr/lib/gcc/x86_64-pc-linux-gnu/12/include/g++-v12/bits/basic_string.tcc **** 	  explicit _Guard(basic_string* __s) : _M_guarded(__s) { }
 652              		.loc 7 235 13 is_stmt 1 view .LVU182
 653              		.loc 7 235 13 is_stmt 0 view .LVU183
 654              	.LBE576:
 655              	.LBB577:
 656              	.LBI577:
 233:/usr/lib/gcc/x86_64-pc-linux-gnu/12/include/g++-v12/bits/basic_string.h ****       { return _M_dataplus._M_p; }
 657              		.loc 4 233 7 is_stmt 1 view .LVU184
 658              	.LBB578:
 234:/usr/lib/gcc/x86_64-pc-linux-gnu/12/include/g++-v12/bits/basic_string.h **** 
 659              		.loc 4 234 28 is_stmt 0 view .LVU185
 660 0016 488B3F   		movq	(%rdi), %rdi
 661              	.LVL57:
 234:/usr/lib/gcc/x86_64-pc-linux-gnu/12/include/g++-v12/bits/basic_string.h **** 
 662              		.loc 4 234 28 view .LVU186
 663              	.LBE578:
 664              	.LBE577:
 665              	.LBB579:
 666              	.LBI579:
 293:/usr/lib/gcc/x86_64-pc-linux-gnu/12/include/g++-v12/bits/basic_string.h **** 
 294:/usr/lib/gcc/x86_64-pc-linux-gnu/12/include/g++-v12/bits/basic_string.h **** #if __cplusplus < 201103L || defined _GLIBCXX_DEFINING_STRING_INSTANTIATIONS
 295:/usr/lib/gcc/x86_64-pc-linux-gnu/12/include/g++-v12/bits/basic_string.h ****       // _M_construct_aux is used to implement the 21.3.1 para 15 which
 296:/usr/lib/gcc/x86_64-pc-linux-gnu/12/include/g++-v12/bits/basic_string.h ****       // requires special behaviour if _InIterator is an integral type
 297:/usr/lib/gcc/x86_64-pc-linux-gnu/12/include/g++-v12/bits/basic_string.h ****       template<typename _InIterator>
 298:/usr/lib/gcc/x86_64-pc-linux-gnu/12/include/g++-v12/bits/basic_string.h ****         void
 299:/usr/lib/gcc/x86_64-pc-linux-gnu/12/include/g++-v12/bits/basic_string.h ****         _M_construct_aux(_InIterator __beg, _InIterator __end,
 300:/usr/lib/gcc/x86_64-pc-linux-gnu/12/include/g++-v12/bits/basic_string.h **** 			 std::__false_type)
 301:/usr/lib/gcc/x86_64-pc-linux-gnu/12/include/g++-v12/bits/basic_string.h **** 	{
 302:/usr/lib/gcc/x86_64-pc-linux-gnu/12/include/g++-v12/bits/basic_string.h ****           typedef typename iterator_traits<_InIterator>::iterator_category _Tag;
 303:/usr/lib/gcc/x86_64-pc-linux-gnu/12/include/g++-v12/bits/basic_string.h ****           _M_construct(__beg, __end, _Tag());
 304:/usr/lib/gcc/x86_64-pc-linux-gnu/12/include/g++-v12/bits/basic_string.h **** 	}
 305:/usr/lib/gcc/x86_64-pc-linux-gnu/12/include/g++-v12/bits/basic_string.h **** 
 306:/usr/lib/gcc/x86_64-pc-linux-gnu/12/include/g++-v12/bits/basic_string.h ****       // _GLIBCXX_RESOLVE_LIB_DEFECTS
 307:/usr/lib/gcc/x86_64-pc-linux-gnu/12/include/g++-v12/bits/basic_string.h ****       // 438. Ambiguity in the "do the right thing" clause
 308:/usr/lib/gcc/x86_64-pc-linux-gnu/12/include/g++-v12/bits/basic_string.h ****       template<typename _Integer>
GAS LISTING /tmp/cce3XYli.s 			page 50


 309:/usr/lib/gcc/x86_64-pc-linux-gnu/12/include/g++-v12/bits/basic_string.h ****         void
 310:/usr/lib/gcc/x86_64-pc-linux-gnu/12/include/g++-v12/bits/basic_string.h ****         _M_construct_aux(_Integer __beg, _Integer __end, std::__true_type)
 311:/usr/lib/gcc/x86_64-pc-linux-gnu/12/include/g++-v12/bits/basic_string.h **** 	{ _M_construct_aux_2(static_cast<size_type>(__beg), __end); }
 312:/usr/lib/gcc/x86_64-pc-linux-gnu/12/include/g++-v12/bits/basic_string.h **** 
 313:/usr/lib/gcc/x86_64-pc-linux-gnu/12/include/g++-v12/bits/basic_string.h ****       void
 314:/usr/lib/gcc/x86_64-pc-linux-gnu/12/include/g++-v12/bits/basic_string.h ****       _M_construct_aux_2(size_type __req, _CharT __c)
 315:/usr/lib/gcc/x86_64-pc-linux-gnu/12/include/g++-v12/bits/basic_string.h ****       { _M_construct(__req, __c); }
 316:/usr/lib/gcc/x86_64-pc-linux-gnu/12/include/g++-v12/bits/basic_string.h **** #endif
 317:/usr/lib/gcc/x86_64-pc-linux-gnu/12/include/g++-v12/bits/basic_string.h **** 
 318:/usr/lib/gcc/x86_64-pc-linux-gnu/12/include/g++-v12/bits/basic_string.h ****       // For Input Iterators, used in istreambuf_iterators, etc.
 319:/usr/lib/gcc/x86_64-pc-linux-gnu/12/include/g++-v12/bits/basic_string.h ****       template<typename _InIterator>
 320:/usr/lib/gcc/x86_64-pc-linux-gnu/12/include/g++-v12/bits/basic_string.h **** 	_GLIBCXX20_CONSTEXPR
 321:/usr/lib/gcc/x86_64-pc-linux-gnu/12/include/g++-v12/bits/basic_string.h ****         void
 322:/usr/lib/gcc/x86_64-pc-linux-gnu/12/include/g++-v12/bits/basic_string.h ****         _M_construct(_InIterator __beg, _InIterator __end,
 323:/usr/lib/gcc/x86_64-pc-linux-gnu/12/include/g++-v12/bits/basic_string.h **** 		     std::input_iterator_tag);
 324:/usr/lib/gcc/x86_64-pc-linux-gnu/12/include/g++-v12/bits/basic_string.h **** 
 325:/usr/lib/gcc/x86_64-pc-linux-gnu/12/include/g++-v12/bits/basic_string.h ****       // For forward_iterators up to random_access_iterators, used for
 326:/usr/lib/gcc/x86_64-pc-linux-gnu/12/include/g++-v12/bits/basic_string.h ****       // string::iterator, _CharT*, etc.
 327:/usr/lib/gcc/x86_64-pc-linux-gnu/12/include/g++-v12/bits/basic_string.h ****       template<typename _FwdIterator>
 328:/usr/lib/gcc/x86_64-pc-linux-gnu/12/include/g++-v12/bits/basic_string.h **** 	_GLIBCXX20_CONSTEXPR
 329:/usr/lib/gcc/x86_64-pc-linux-gnu/12/include/g++-v12/bits/basic_string.h ****         void
 330:/usr/lib/gcc/x86_64-pc-linux-gnu/12/include/g++-v12/bits/basic_string.h ****         _M_construct(_FwdIterator __beg, _FwdIterator __end,
 331:/usr/lib/gcc/x86_64-pc-linux-gnu/12/include/g++-v12/bits/basic_string.h **** 		     std::forward_iterator_tag);
 332:/usr/lib/gcc/x86_64-pc-linux-gnu/12/include/g++-v12/bits/basic_string.h **** 
 333:/usr/lib/gcc/x86_64-pc-linux-gnu/12/include/g++-v12/bits/basic_string.h ****       _GLIBCXX20_CONSTEXPR
 334:/usr/lib/gcc/x86_64-pc-linux-gnu/12/include/g++-v12/bits/basic_string.h ****       void
 335:/usr/lib/gcc/x86_64-pc-linux-gnu/12/include/g++-v12/bits/basic_string.h ****       _M_construct(size_type __req, _CharT __c);
 336:/usr/lib/gcc/x86_64-pc-linux-gnu/12/include/g++-v12/bits/basic_string.h **** 
 337:/usr/lib/gcc/x86_64-pc-linux-gnu/12/include/g++-v12/bits/basic_string.h ****       _GLIBCXX20_CONSTEXPR
 338:/usr/lib/gcc/x86_64-pc-linux-gnu/12/include/g++-v12/bits/basic_string.h ****       allocator_type&
 339:/usr/lib/gcc/x86_64-pc-linux-gnu/12/include/g++-v12/bits/basic_string.h ****       _M_get_allocator()
 340:/usr/lib/gcc/x86_64-pc-linux-gnu/12/include/g++-v12/bits/basic_string.h ****       { return _M_dataplus; }
 341:/usr/lib/gcc/x86_64-pc-linux-gnu/12/include/g++-v12/bits/basic_string.h **** 
 342:/usr/lib/gcc/x86_64-pc-linux-gnu/12/include/g++-v12/bits/basic_string.h ****       _GLIBCXX20_CONSTEXPR
 343:/usr/lib/gcc/x86_64-pc-linux-gnu/12/include/g++-v12/bits/basic_string.h ****       const allocator_type&
 344:/usr/lib/gcc/x86_64-pc-linux-gnu/12/include/g++-v12/bits/basic_string.h ****       _M_get_allocator() const
 345:/usr/lib/gcc/x86_64-pc-linux-gnu/12/include/g++-v12/bits/basic_string.h ****       { return _M_dataplus; }
 346:/usr/lib/gcc/x86_64-pc-linux-gnu/12/include/g++-v12/bits/basic_string.h **** 
 347:/usr/lib/gcc/x86_64-pc-linux-gnu/12/include/g++-v12/bits/basic_string.h ****       // Ensure that _M_local_buf is the active member of the union.
 348:/usr/lib/gcc/x86_64-pc-linux-gnu/12/include/g++-v12/bits/basic_string.h ****       __attribute__((__always_inline__))
 349:/usr/lib/gcc/x86_64-pc-linux-gnu/12/include/g++-v12/bits/basic_string.h ****       _GLIBCXX14_CONSTEXPR
 350:/usr/lib/gcc/x86_64-pc-linux-gnu/12/include/g++-v12/bits/basic_string.h ****       pointer
 351:/usr/lib/gcc/x86_64-pc-linux-gnu/12/include/g++-v12/bits/basic_string.h ****       _M_use_local_data() _GLIBCXX_NOEXCEPT
 352:/usr/lib/gcc/x86_64-pc-linux-gnu/12/include/g++-v12/bits/basic_string.h ****       {
 353:/usr/lib/gcc/x86_64-pc-linux-gnu/12/include/g++-v12/bits/basic_string.h **** #if __cpp_lib_is_constant_evaluated
 354:/usr/lib/gcc/x86_64-pc-linux-gnu/12/include/g++-v12/bits/basic_string.h **** 	if (std::is_constant_evaluated())
 355:/usr/lib/gcc/x86_64-pc-linux-gnu/12/include/g++-v12/bits/basic_string.h **** 	  for (size_type __i = 0; __i <= _S_local_capacity; ++__i)
 356:/usr/lib/gcc/x86_64-pc-linux-gnu/12/include/g++-v12/bits/basic_string.h **** 	    _M_local_buf[__i] = _CharT();
 357:/usr/lib/gcc/x86_64-pc-linux-gnu/12/include/g++-v12/bits/basic_string.h **** #endif
 358:/usr/lib/gcc/x86_64-pc-linux-gnu/12/include/g++-v12/bits/basic_string.h **** 	return _M_local_data();
 359:/usr/lib/gcc/x86_64-pc-linux-gnu/12/include/g++-v12/bits/basic_string.h ****       }
 360:/usr/lib/gcc/x86_64-pc-linux-gnu/12/include/g++-v12/bits/basic_string.h **** 
 361:/usr/lib/gcc/x86_64-pc-linux-gnu/12/include/g++-v12/bits/basic_string.h ****     private:
 362:/usr/lib/gcc/x86_64-pc-linux-gnu/12/include/g++-v12/bits/basic_string.h **** 
 363:/usr/lib/gcc/x86_64-pc-linux-gnu/12/include/g++-v12/bits/basic_string.h **** #ifdef _GLIBCXX_DISAMBIGUATE_REPLACE_INST
 364:/usr/lib/gcc/x86_64-pc-linux-gnu/12/include/g++-v12/bits/basic_string.h ****       // The explicit instantiations in misc-inst.cc require this due to
 365:/usr/lib/gcc/x86_64-pc-linux-gnu/12/include/g++-v12/bits/basic_string.h ****       // https://gcc.gnu.org/bugzilla/show_bug.cgi?id=64063
GAS LISTING /tmp/cce3XYli.s 			page 51


 366:/usr/lib/gcc/x86_64-pc-linux-gnu/12/include/g++-v12/bits/basic_string.h ****       template<typename _Tp, bool _Requires =
 367:/usr/lib/gcc/x86_64-pc-linux-gnu/12/include/g++-v12/bits/basic_string.h **** 	       !__are_same<_Tp, _CharT*>::__value
 368:/usr/lib/gcc/x86_64-pc-linux-gnu/12/include/g++-v12/bits/basic_string.h **** 	       && !__are_same<_Tp, const _CharT*>::__value
 369:/usr/lib/gcc/x86_64-pc-linux-gnu/12/include/g++-v12/bits/basic_string.h **** 	       && !__are_same<_Tp, iterator>::__value
 370:/usr/lib/gcc/x86_64-pc-linux-gnu/12/include/g++-v12/bits/basic_string.h **** 	       && !__are_same<_Tp, const_iterator>::__value>
 371:/usr/lib/gcc/x86_64-pc-linux-gnu/12/include/g++-v12/bits/basic_string.h **** 	struct __enable_if_not_native_iterator
 372:/usr/lib/gcc/x86_64-pc-linux-gnu/12/include/g++-v12/bits/basic_string.h **** 	{ typedef basic_string& __type; };
 373:/usr/lib/gcc/x86_64-pc-linux-gnu/12/include/g++-v12/bits/basic_string.h ****       template<typename _Tp>
